                              1 ;--------------------------------------------------------
                              2 ; File Created by SDCC : free open source ANSI-C Compiler
                              3 ; Version 4.0.0 #11528 (Linux)
                              4 ;--------------------------------------------------------
                              5 	.module aes256
                              6 	.optsdcc -mz80
                              7 	
                              8 ;--------------------------------------------------------
                              9 ; Public variables in this module
                             10 ;--------------------------------------------------------
                             11 	.globl _main
                             12 	.globl _AES256_Encrypt
                             13 	.globl _puts
                             14 	.globl _printf
                             15 ;--------------------------------------------------------
                             16 ; special function registers
                             17 ;--------------------------------------------------------
                             18 ;--------------------------------------------------------
                             19 ; ram data
                             20 ;--------------------------------------------------------
                             21 	.area _DATA
                             22 ;--------------------------------------------------------
                             23 ; ram data
                             24 ;--------------------------------------------------------
                             25 	.area _INITIALIZED
                             26 ;--------------------------------------------------------
                             27 ; absolute external ram data
                             28 ;--------------------------------------------------------
                             29 	.area _DABS (ABS)
                             30 ;--------------------------------------------------------
                             31 ; global & static initialisations
                             32 ;--------------------------------------------------------
                             33 	.area _HOME
                             34 	.area _GSINIT
                             35 	.area _GSFINAL
                             36 	.area _GSINIT
                             37 ;--------------------------------------------------------
                             38 ; Home
                             39 ;--------------------------------------------------------
                             40 	.area _HOME
                             41 	.area _HOME
                             42 ;--------------------------------------------------------
                             43 ; code
                             44 ;--------------------------------------------------------
                             45 	.area _CODE
                     0000    46 	Faes256$xtime$0$0	= .
                             47 	.globl	Faes256$xtime$0$0
                     0000    48 	C$aes256.c$33$0_0$35	= .
                             49 	.globl	C$aes256.c$33$0_0$35
                             50 ;/work/source_code/testingfiles/aes256.c:33: static inline uint8_t xtime(uint8_t x) {
                             51 ;	---------------------------------
                             52 ; Function xtime
                             53 ; ---------------------------------
   0000                      54 _xtime:
   0000 DD E5         [15]   55 	push	ix
   0002 DD 21 00 00   [14]   56 	ld	ix,#0
   0006 DD 39         [15]   57 	add	ix,sp
                     0008    58 	C$aes256.c$34$1_0$35	= .
                             59 	.globl	C$aes256.c$34$1_0$35
                             60 ;/work/source_code/testingfiles/aes256.c:34: return (uint8_t)((x << 1) ^ ((x & 0x80) ? 0x1B : 0));
   0008 DD 7E 04      [19]   61 	ld	a, 4 (ix)
   000B 87            [ 4]   62 	add	a, a
   000C 4F            [ 4]   63 	ld	c, a
   000D DD 7E 04      [19]   64 	ld	a, 4 (ix)
   0010 07            [ 4]   65 	rlca
   0011 DAr17r00      [10]   66 	jp	C,00110$
   0014 C3r1Dr00      [10]   67 	jp	00103$
   0017                      68 00110$:
   0017 11 1B 00      [10]   69 	ld	de, #0x001b
   001A C3r20r00      [10]   70 	jp	00104$
   001D                      71 00103$:
   001D 11 00 00      [10]   72 	ld	de, #0x0000
   0020                      73 00104$:
   0020 79            [ 4]   74 	ld	a, c
   0021 17            [ 4]   75 	rla
   0022 9F            [ 4]   76 	sbc	a, a
   0023 F5            [11]   77 	push	af
   0024 79            [ 4]   78 	ld	a, c
   0025 AB            [ 4]   79 	xor	a, e
   0026 6F            [ 4]   80 	ld	l, a
   0027 F1            [10]   81 	pop	af
   0028 AA            [ 4]   82 	xor	a, d
   0029                      83 00101$:
                     0029    84 	C$aes256.c$35$1_0$35	= .
                             85 	.globl	C$aes256.c$35$1_0$35
                             86 ;/work/source_code/testingfiles/aes256.c:35: }
   0029 DD E1         [14]   87 	pop	ix
                     002B    88 	C$aes256.c$35$1_0$35	= .
                             89 	.globl	C$aes256.c$35$1_0$35
                     002B    90 	XFaes256$xtime$0$0	= .
                             91 	.globl	XFaes256$xtime$0$0
   002B C9            [10]   92 	ret
                     002C    93 Faes256$SBOX$0_0$0 == .
   002C                      94 _SBOX:
   002C 63                   95 	.db #0x63	; 99	'c'
   002D 7C                   96 	.db #0x7c	; 124
   002E 77                   97 	.db #0x77	; 119	'w'
   002F 7B                   98 	.db #0x7b	; 123
   0030 F2                   99 	.db #0xf2	; 242
   0031 6B                  100 	.db #0x6b	; 107	'k'
   0032 6F                  101 	.db #0x6f	; 111	'o'
   0033 C5                  102 	.db #0xc5	; 197
   0034 30                  103 	.db #0x30	; 48	'0'
   0035 01                  104 	.db #0x01	; 1
   0036 67                  105 	.db #0x67	; 103	'g'
   0037 2B                  106 	.db #0x2b	; 43
   0038 FE                  107 	.db #0xfe	; 254
   0039 D7                  108 	.db #0xd7	; 215
   003A AB                  109 	.db #0xab	; 171
   003B 76                  110 	.db #0x76	; 118	'v'
   003C CA                  111 	.db #0xca	; 202
   003D 82                  112 	.db #0x82	; 130
   003E C9                  113 	.db #0xc9	; 201
   003F 7D                  114 	.db #0x7d	; 125
   0040 FA                  115 	.db #0xfa	; 250
   0041 59                  116 	.db #0x59	; 89	'Y'
   0042 47                  117 	.db #0x47	; 71	'G'
   0043 F0                  118 	.db #0xf0	; 240
   0044 AD                  119 	.db #0xad	; 173
   0045 D4                  120 	.db #0xd4	; 212
   0046 A2                  121 	.db #0xa2	; 162
   0047 AF                  122 	.db #0xaf	; 175
   0048 9C                  123 	.db #0x9c	; 156
   0049 A4                  124 	.db #0xa4	; 164
   004A 72                  125 	.db #0x72	; 114	'r'
   004B C0                  126 	.db #0xc0	; 192
   004C B7                  127 	.db #0xb7	; 183
   004D FD                  128 	.db #0xfd	; 253
   004E 93                  129 	.db #0x93	; 147
   004F 26                  130 	.db #0x26	; 38
   0050 36                  131 	.db #0x36	; 54	'6'
   0051 3F                  132 	.db #0x3f	; 63
   0052 F7                  133 	.db #0xf7	; 247
   0053 CC                  134 	.db #0xcc	; 204
   0054 34                  135 	.db #0x34	; 52	'4'
   0055 A5                  136 	.db #0xa5	; 165
   0056 E5                  137 	.db #0xe5	; 229
   0057 F1                  138 	.db #0xf1	; 241
   0058 71                  139 	.db #0x71	; 113	'q'
   0059 D8                  140 	.db #0xd8	; 216
   005A 31                  141 	.db #0x31	; 49	'1'
   005B 15                  142 	.db #0x15	; 21
   005C 04                  143 	.db #0x04	; 4
   005D C7                  144 	.db #0xc7	; 199
   005E 23                  145 	.db #0x23	; 35
   005F C3                  146 	.db #0xc3	; 195
   0060 18                  147 	.db #0x18	; 24
   0061 96                  148 	.db #0x96	; 150
   0062 05                  149 	.db #0x05	; 5
   0063 9A                  150 	.db #0x9a	; 154
   0064 07                  151 	.db #0x07	; 7
   0065 12                  152 	.db #0x12	; 18
   0066 80                  153 	.db #0x80	; 128
   0067 E2                  154 	.db #0xe2	; 226
   0068 EB                  155 	.db #0xeb	; 235
   0069 27                  156 	.db #0x27	; 39
   006A B2                  157 	.db #0xb2	; 178
   006B 75                  158 	.db #0x75	; 117	'u'
   006C 09                  159 	.db #0x09	; 9
   006D 83                  160 	.db #0x83	; 131
   006E 2C                  161 	.db #0x2c	; 44
   006F 1A                  162 	.db #0x1a	; 26
   0070 1B                  163 	.db #0x1b	; 27
   0071 6E                  164 	.db #0x6e	; 110	'n'
   0072 5A                  165 	.db #0x5a	; 90	'Z'
   0073 A0                  166 	.db #0xa0	; 160
   0074 52                  167 	.db #0x52	; 82	'R'
   0075 3B                  168 	.db #0x3b	; 59
   0076 D6                  169 	.db #0xd6	; 214
   0077 B3                  170 	.db #0xb3	; 179
   0078 29                  171 	.db #0x29	; 41
   0079 E3                  172 	.db #0xe3	; 227
   007A 2F                  173 	.db #0x2f	; 47
   007B 84                  174 	.db #0x84	; 132
   007C 53                  175 	.db #0x53	; 83	'S'
   007D D1                  176 	.db #0xd1	; 209
   007E 00                  177 	.db #0x00	; 0
   007F ED                  178 	.db #0xed	; 237
   0080 20                  179 	.db #0x20	; 32
   0081 FC                  180 	.db #0xfc	; 252
   0082 B1                  181 	.db #0xb1	; 177
   0083 5B                  182 	.db #0x5b	; 91
   0084 6A                  183 	.db #0x6a	; 106	'j'
   0085 CB                  184 	.db #0xcb	; 203
   0086 BE                  185 	.db #0xbe	; 190
   0087 39                  186 	.db #0x39	; 57	'9'
   0088 4A                  187 	.db #0x4a	; 74	'J'
   0089 4C                  188 	.db #0x4c	; 76	'L'
   008A 58                  189 	.db #0x58	; 88	'X'
   008B CF                  190 	.db #0xcf	; 207
   008C D0                  191 	.db #0xd0	; 208
   008D EF                  192 	.db #0xef	; 239
   008E AA                  193 	.db #0xaa	; 170
   008F FB                  194 	.db #0xfb	; 251
   0090 43                  195 	.db #0x43	; 67	'C'
   0091 4D                  196 	.db #0x4d	; 77	'M'
   0092 33                  197 	.db #0x33	; 51	'3'
   0093 85                  198 	.db #0x85	; 133
   0094 45                  199 	.db #0x45	; 69	'E'
   0095 F9                  200 	.db #0xf9	; 249
   0096 02                  201 	.db #0x02	; 2
   0097 7F                  202 	.db #0x7f	; 127
   0098 50                  203 	.db #0x50	; 80	'P'
   0099 3C                  204 	.db #0x3c	; 60
   009A 9F                  205 	.db #0x9f	; 159
   009B A8                  206 	.db #0xa8	; 168
   009C 51                  207 	.db #0x51	; 81	'Q'
   009D A3                  208 	.db #0xa3	; 163
   009E 40                  209 	.db #0x40	; 64
   009F 8F                  210 	.db #0x8f	; 143
   00A0 92                  211 	.db #0x92	; 146
   00A1 9D                  212 	.db #0x9d	; 157
   00A2 38                  213 	.db #0x38	; 56	'8'
   00A3 F5                  214 	.db #0xf5	; 245
   00A4 BC                  215 	.db #0xbc	; 188
   00A5 B6                  216 	.db #0xb6	; 182
   00A6 DA                  217 	.db #0xda	; 218
   00A7 21                  218 	.db #0x21	; 33
   00A8 10                  219 	.db #0x10	; 16
   00A9 FF                  220 	.db #0xff	; 255
   00AA F3                  221 	.db #0xf3	; 243
   00AB D2                  222 	.db #0xd2	; 210
   00AC CD                  223 	.db #0xcd	; 205
   00AD 0C                  224 	.db #0x0c	; 12
   00AE 13                  225 	.db #0x13	; 19
   00AF EC                  226 	.db #0xec	; 236
   00B0 5F                  227 	.db #0x5f	; 95
   00B1 97                  228 	.db #0x97	; 151
   00B2 44                  229 	.db #0x44	; 68	'D'
   00B3 17                  230 	.db #0x17	; 23
   00B4 C4                  231 	.db #0xc4	; 196
   00B5 A7                  232 	.db #0xa7	; 167
   00B6 7E                  233 	.db #0x7e	; 126
   00B7 3D                  234 	.db #0x3d	; 61
   00B8 64                  235 	.db #0x64	; 100	'd'
   00B9 5D                  236 	.db #0x5d	; 93
   00BA 19                  237 	.db #0x19	; 25
   00BB 73                  238 	.db #0x73	; 115	's'
   00BC 60                  239 	.db #0x60	; 96
   00BD 81                  240 	.db #0x81	; 129
   00BE 4F                  241 	.db #0x4f	; 79	'O'
   00BF DC                  242 	.db #0xdc	; 220
   00C0 22                  243 	.db #0x22	; 34
   00C1 2A                  244 	.db #0x2a	; 42
   00C2 90                  245 	.db #0x90	; 144
   00C3 88                  246 	.db #0x88	; 136
   00C4 46                  247 	.db #0x46	; 70	'F'
   00C5 EE                  248 	.db #0xee	; 238
   00C6 B8                  249 	.db #0xb8	; 184
   00C7 14                  250 	.db #0x14	; 20
   00C8 DE                  251 	.db #0xde	; 222
   00C9 5E                  252 	.db #0x5e	; 94
   00CA 0B                  253 	.db #0x0b	; 11
   00CB DB                  254 	.db #0xdb	; 219
   00CC E0                  255 	.db #0xe0	; 224
   00CD 32                  256 	.db #0x32	; 50	'2'
   00CE 3A                  257 	.db #0x3a	; 58
   00CF 0A                  258 	.db #0x0a	; 10
   00D0 49                  259 	.db #0x49	; 73	'I'
   00D1 06                  260 	.db #0x06	; 6
   00D2 24                  261 	.db #0x24	; 36
   00D3 5C                  262 	.db #0x5c	; 92
   00D4 C2                  263 	.db #0xc2	; 194
   00D5 D3                  264 	.db #0xd3	; 211
   00D6 AC                  265 	.db #0xac	; 172
   00D7 62                  266 	.db #0x62	; 98	'b'
   00D8 91                  267 	.db #0x91	; 145
   00D9 95                  268 	.db #0x95	; 149
   00DA E4                  269 	.db #0xe4	; 228
   00DB 79                  270 	.db #0x79	; 121	'y'
   00DC E7                  271 	.db #0xe7	; 231
   00DD C8                  272 	.db #0xc8	; 200
   00DE 37                  273 	.db #0x37	; 55	'7'
   00DF 6D                  274 	.db #0x6d	; 109	'm'
   00E0 8D                  275 	.db #0x8d	; 141
   00E1 D5                  276 	.db #0xd5	; 213
   00E2 4E                  277 	.db #0x4e	; 78	'N'
   00E3 A9                  278 	.db #0xa9	; 169
   00E4 6C                  279 	.db #0x6c	; 108	'l'
   00E5 56                  280 	.db #0x56	; 86	'V'
   00E6 F4                  281 	.db #0xf4	; 244
   00E7 EA                  282 	.db #0xea	; 234
   00E8 65                  283 	.db #0x65	; 101	'e'
   00E9 7A                  284 	.db #0x7a	; 122	'z'
   00EA AE                  285 	.db #0xae	; 174
   00EB 08                  286 	.db #0x08	; 8
   00EC BA                  287 	.db #0xba	; 186
   00ED 78                  288 	.db #0x78	; 120	'x'
   00EE 25                  289 	.db #0x25	; 37
   00EF 2E                  290 	.db #0x2e	; 46
   00F0 1C                  291 	.db #0x1c	; 28
   00F1 A6                  292 	.db #0xa6	; 166
   00F2 B4                  293 	.db #0xb4	; 180
   00F3 C6                  294 	.db #0xc6	; 198
   00F4 E8                  295 	.db #0xe8	; 232
   00F5 DD                  296 	.db #0xdd	; 221
   00F6 74                  297 	.db #0x74	; 116	't'
   00F7 1F                  298 	.db #0x1f	; 31
   00F8 4B                  299 	.db #0x4b	; 75	'K'
   00F9 BD                  300 	.db #0xbd	; 189
   00FA 8B                  301 	.db #0x8b	; 139
   00FB 8A                  302 	.db #0x8a	; 138
   00FC 70                  303 	.db #0x70	; 112	'p'
   00FD 3E                  304 	.db #0x3e	; 62
   00FE B5                  305 	.db #0xb5	; 181
   00FF 66                  306 	.db #0x66	; 102	'f'
   0100 48                  307 	.db #0x48	; 72	'H'
   0101 03                  308 	.db #0x03	; 3
   0102 F6                  309 	.db #0xf6	; 246
   0103 0E                  310 	.db #0x0e	; 14
   0104 61                  311 	.db #0x61	; 97	'a'
   0105 35                  312 	.db #0x35	; 53	'5'
   0106 57                  313 	.db #0x57	; 87	'W'
   0107 B9                  314 	.db #0xb9	; 185
   0108 86                  315 	.db #0x86	; 134
   0109 C1                  316 	.db #0xc1	; 193
   010A 1D                  317 	.db #0x1d	; 29
   010B 9E                  318 	.db #0x9e	; 158
   010C E1                  319 	.db #0xe1	; 225
   010D F8                  320 	.db #0xf8	; 248
   010E 98                  321 	.db #0x98	; 152
   010F 11                  322 	.db #0x11	; 17
   0110 69                  323 	.db #0x69	; 105	'i'
   0111 D9                  324 	.db #0xd9	; 217
   0112 8E                  325 	.db #0x8e	; 142
   0113 94                  326 	.db #0x94	; 148
   0114 9B                  327 	.db #0x9b	; 155
   0115 1E                  328 	.db #0x1e	; 30
   0116 87                  329 	.db #0x87	; 135
   0117 E9                  330 	.db #0xe9	; 233
   0118 CE                  331 	.db #0xce	; 206
   0119 55                  332 	.db #0x55	; 85	'U'
   011A 28                  333 	.db #0x28	; 40
   011B DF                  334 	.db #0xdf	; 223
   011C 8C                  335 	.db #0x8c	; 140
   011D A1                  336 	.db #0xa1	; 161
   011E 89                  337 	.db #0x89	; 137
   011F 0D                  338 	.db #0x0d	; 13
   0120 BF                  339 	.db #0xbf	; 191
   0121 E6                  340 	.db #0xe6	; 230
   0122 42                  341 	.db #0x42	; 66	'B'
   0123 68                  342 	.db #0x68	; 104	'h'
   0124 41                  343 	.db #0x41	; 65	'A'
   0125 99                  344 	.db #0x99	; 153
   0126 2D                  345 	.db #0x2d	; 45
   0127 0F                  346 	.db #0x0f	; 15
   0128 B0                  347 	.db #0xb0	; 176
   0129 54                  348 	.db #0x54	; 84	'T'
   012A BB                  349 	.db #0xbb	; 187
   012B 16                  350 	.db #0x16	; 22
                     012C   351 Faes256$RCON$0_0$0 == .
   012C                     352 _RCON:
   012C 00                  353 	.db #0x00	; 0
   012D 01                  354 	.db #0x01	; 1
   012E 02                  355 	.db #0x02	; 2
   012F 04                  356 	.db #0x04	; 4
   0130 08                  357 	.db #0x08	; 8
   0131 10                  358 	.db #0x10	; 16
   0132 20                  359 	.db #0x20	; 32
   0133 40                  360 	.db #0x40	; 64
   0134 80                  361 	.db #0x80	; 128
   0135 1B                  362 	.db #0x1b	; 27
   0136 36                  363 	.db #0x36	; 54	'6'
   0137 6C                  364 	.db #0x6c	; 108	'l'
   0138 D8                  365 	.db #0xd8	; 216
   0139 AB                  366 	.db #0xab	; 171
   013A 4D                  367 	.db #0x4d	; 77	'M'
                     013B   368 	Faes256$SubBytes$0$0	= .
                            369 	.globl	Faes256$SubBytes$0$0
                     013B   370 	C$aes256.c$37$1_0$38	= .
                            371 	.globl	C$aes256.c$37$1_0$38
                            372 ;/work/source_code/testingfiles/aes256.c:37: static void SubBytes(uint8_t *s) {
                            373 ;	---------------------------------
                            374 ; Function SubBytes
                            375 ; ---------------------------------
   013B                     376 _SubBytes:
   013B DD E5         [15]  377 	push	ix
   013D DD 21 00 00   [14]  378 	ld	ix,#0
   0141 DD 39         [15]  379 	add	ix,sp
                     0143   380 	C$aes256.c$38$2_0$38	= .
                            381 	.globl	C$aes256.c$38$2_0$38
                            382 ;/work/source_code/testingfiles/aes256.c:38: for (int i = 0; i < 16; ++i) s[i] = SBOX[s[i]];
   0143 01 00 00      [10]  383 	ld	bc, #0x0000
   0146                     384 00103$:
   0146 79            [ 4]  385 	ld	a, c
   0147 D6 10         [ 7]  386 	sub	a, #0x10
   0149 78            [ 4]  387 	ld	a, b
   014A 17            [ 4]  388 	rla
   014B 3F            [ 4]  389 	ccf
   014C 1F            [ 4]  390 	rra
   014D DE 80         [ 7]  391 	sbc	a, #0x80
   014F D2r6Br01      [10]  392 	jp	NC, 00105$
   0152 DD 7E 04      [19]  393 	ld	a, 4 (ix)
   0155 81            [ 4]  394 	add	a, c
   0156 5F            [ 4]  395 	ld	e, a
   0157 DD 7E 05      [19]  396 	ld	a, 5 (ix)
   015A 88            [ 4]  397 	adc	a, b
   015B 57            [ 4]  398 	ld	d, a
   015C 1A            [ 7]  399 	ld	a, (de)
   015D C6r2C         [ 7]  400 	add	a, #<(_SBOX)
   015F 6F            [ 4]  401 	ld	l, a
   0160 3E 00         [ 7]  402 	ld	a, #0x00
   0162 CEs00         [ 7]  403 	adc	a, #>(_SBOX)
   0164 67            [ 4]  404 	ld	h, a
   0165 7E            [ 7]  405 	ld	a, (hl)
   0166 12            [ 7]  406 	ld	(de), a
   0167 03            [ 6]  407 	inc	bc
   0168 C3r46r01      [10]  408 	jp	00103$
   016B                     409 00105$:
                     016B   410 	C$aes256.c$39$2_0$38	= .
                            411 	.globl	C$aes256.c$39$2_0$38
                            412 ;/work/source_code/testingfiles/aes256.c:39: }
   016B DD E1         [14]  413 	pop	ix
                     016D   414 	C$aes256.c$39$2_0$38	= .
                            415 	.globl	C$aes256.c$39$2_0$38
                     016D   416 	XFaes256$SubBytes$0$0	= .
                            417 	.globl	XFaes256$SubBytes$0$0
   016D C9            [10]  418 	ret
                     016E   419 	Faes256$ShiftRows$0$0	= .
                            420 	.globl	Faes256$ShiftRows$0$0
                     016E   421 	C$aes256.c$41$2_0$40	= .
                            422 	.globl	C$aes256.c$41$2_0$40
                            423 ;/work/source_code/testingfiles/aes256.c:41: static void ShiftRows(uint8_t *s) {
                            424 ;	---------------------------------
                            425 ; Function ShiftRows
                            426 ; ---------------------------------
   016E                     427 _ShiftRows:
   016E DD E5         [15]  428 	push	ix
   0170 DD 21 00 00   [14]  429 	ld	ix,#0
   0174 DD 39         [15]  430 	add	ix,sp
   0176 21 F0 FF      [10]  431 	ld	hl, #-16
   0179 39            [11]  432 	add	hl, sp
   017A F9            [ 6]  433 	ld	sp, hl
                     017B   434 	C$aes256.c$43$1_0$40	= .
                            435 	.globl	C$aes256.c$43$1_0$40
                            436 ;/work/source_code/testingfiles/aes256.c:43: memcpy(t, s, 16);
   017B 21 00 00      [10]  437 	ld	hl, #0
   017E 39            [11]  438 	add	hl, sp
   017F 4D            [ 4]  439 	ld	c, l
   0180 44            [ 4]  440 	ld	b, h
   0181 59            [ 4]  441 	ld	e, c
   0182 50            [ 4]  442 	ld	d, b
   0183 DD 6E 04      [19]  443 	ld	l, 4 (ix)
   0186 DD 66 05      [19]  444 	ld	h, 5 (ix)
   0189 C5            [11]  445 	push	bc
   018A 01 10 00      [10]  446 	ld	bc, #0x0010
   018D ED B0         [21]  447 	ldir
   018F C1            [10]  448 	pop	bc
                     0190   449 	C$aes256.c$44$1_0$40	= .
                            450 	.globl	C$aes256.c$44$1_0$40
                            451 ;/work/source_code/testingfiles/aes256.c:44: s[1]  = t[5];  s[5]  = t[9];  s[9]  = t[13]; s[13] = t[1];
   0190 DD 5E 04      [19]  452 	ld	e, 4 (ix)
   0193 DD 56 05      [19]  453 	ld	d, 5 (ix)
   0196 13            [ 6]  454 	inc	de
   0197 69            [ 4]  455 	ld	l, c
   0198 60            [ 4]  456 	ld	h, b
   0199 23            [ 6]  457 	inc	hl
   019A 23            [ 6]  458 	inc	hl
   019B 23            [ 6]  459 	inc	hl
   019C 23            [ 6]  460 	inc	hl
   019D 23            [ 6]  461 	inc	hl
   019E 7E            [ 7]  462 	ld	a, (hl)
   019F 12            [ 7]  463 	ld	(de), a
   01A0 DD 7E 04      [19]  464 	ld	a, 4 (ix)
   01A3 C6 05         [ 7]  465 	add	a, #0x05
   01A5 5F            [ 4]  466 	ld	e, a
   01A6 DD 7E 05      [19]  467 	ld	a, 5 (ix)
   01A9 CE 00         [ 7]  468 	adc	a, #0x00
   01AB 57            [ 4]  469 	ld	d, a
   01AC 69            [ 4]  470 	ld	l, c
   01AD 60            [ 4]  471 	ld	h, b
   01AE C5            [11]  472 	push	bc
   01AF 01 09 00      [10]  473 	ld	bc, #0x0009
   01B2 09            [11]  474 	add	hl, bc
   01B3 C1            [10]  475 	pop	bc
   01B4 7E            [ 7]  476 	ld	a, (hl)
   01B5 12            [ 7]  477 	ld	(de), a
   01B6 DD 7E 04      [19]  478 	ld	a, 4 (ix)
   01B9 C6 09         [ 7]  479 	add	a, #0x09
   01BB 5F            [ 4]  480 	ld	e, a
   01BC DD 7E 05      [19]  481 	ld	a, 5 (ix)
   01BF CE 00         [ 7]  482 	adc	a, #0x00
   01C1 57            [ 4]  483 	ld	d, a
   01C2 69            [ 4]  484 	ld	l, c
   01C3 60            [ 4]  485 	ld	h, b
   01C4 C5            [11]  486 	push	bc
   01C5 01 0D 00      [10]  487 	ld	bc, #0x000d
   01C8 09            [11]  488 	add	hl, bc
   01C9 C1            [10]  489 	pop	bc
   01CA 7E            [ 7]  490 	ld	a, (hl)
   01CB 12            [ 7]  491 	ld	(de), a
   01CC DD 7E 04      [19]  492 	ld	a, 4 (ix)
   01CF C6 0D         [ 7]  493 	add	a, #0x0d
   01D1 5F            [ 4]  494 	ld	e, a
   01D2 DD 7E 05      [19]  495 	ld	a, 5 (ix)
   01D5 CE 00         [ 7]  496 	adc	a, #0x00
   01D7 57            [ 4]  497 	ld	d, a
   01D8 69            [ 4]  498 	ld	l, c
   01D9 60            [ 4]  499 	ld	h, b
   01DA 23            [ 6]  500 	inc	hl
   01DB 7E            [ 7]  501 	ld	a, (hl)
   01DC 12            [ 7]  502 	ld	(de), a
                     01DD   503 	C$aes256.c$45$1_0$40	= .
                            504 	.globl	C$aes256.c$45$1_0$40
                            505 ;/work/source_code/testingfiles/aes256.c:45: s[2]  = t[10]; s[10] = t[2];  s[6]  = t[14]; s[14] = t[6];
   01DD DD 5E 04      [19]  506 	ld	e, 4 (ix)
   01E0 DD 56 05      [19]  507 	ld	d, 5 (ix)
   01E3 13            [ 6]  508 	inc	de
   01E4 13            [ 6]  509 	inc	de
   01E5 69            [ 4]  510 	ld	l, c
   01E6 60            [ 4]  511 	ld	h, b
   01E7 C5            [11]  512 	push	bc
   01E8 01 0A 00      [10]  513 	ld	bc, #0x000a
   01EB 09            [11]  514 	add	hl, bc
   01EC C1            [10]  515 	pop	bc
   01ED 7E            [ 7]  516 	ld	a, (hl)
   01EE 12            [ 7]  517 	ld	(de), a
   01EF DD 7E 04      [19]  518 	ld	a, 4 (ix)
   01F2 C6 0A         [ 7]  519 	add	a, #0x0a
   01F4 5F            [ 4]  520 	ld	e, a
   01F5 DD 7E 05      [19]  521 	ld	a, 5 (ix)
   01F8 CE 00         [ 7]  522 	adc	a, #0x00
   01FA 57            [ 4]  523 	ld	d, a
   01FB 69            [ 4]  524 	ld	l, c
   01FC 60            [ 4]  525 	ld	h, b
   01FD 23            [ 6]  526 	inc	hl
   01FE 23            [ 6]  527 	inc	hl
   01FF 7E            [ 7]  528 	ld	a, (hl)
   0200 12            [ 7]  529 	ld	(de), a
   0201 DD 7E 04      [19]  530 	ld	a, 4 (ix)
   0204 C6 06         [ 7]  531 	add	a, #0x06
   0206 5F            [ 4]  532 	ld	e, a
   0207 DD 7E 05      [19]  533 	ld	a, 5 (ix)
   020A CE 00         [ 7]  534 	adc	a, #0x00
   020C 57            [ 4]  535 	ld	d, a
   020D 69            [ 4]  536 	ld	l, c
   020E 60            [ 4]  537 	ld	h, b
   020F C5            [11]  538 	push	bc
   0210 01 0E 00      [10]  539 	ld	bc, #0x000e
   0213 09            [11]  540 	add	hl, bc
   0214 C1            [10]  541 	pop	bc
   0215 7E            [ 7]  542 	ld	a, (hl)
   0216 12            [ 7]  543 	ld	(de), a
   0217 DD 7E 04      [19]  544 	ld	a, 4 (ix)
   021A C6 0E         [ 7]  545 	add	a, #0x0e
   021C 5F            [ 4]  546 	ld	e, a
   021D DD 7E 05      [19]  547 	ld	a, 5 (ix)
   0220 CE 00         [ 7]  548 	adc	a, #0x00
   0222 57            [ 4]  549 	ld	d, a
   0223 69            [ 4]  550 	ld	l, c
   0224 60            [ 4]  551 	ld	h, b
   0225 C5            [11]  552 	push	bc
   0226 01 06 00      [10]  553 	ld	bc, #0x0006
   0229 09            [11]  554 	add	hl, bc
   022A C1            [10]  555 	pop	bc
   022B 7E            [ 7]  556 	ld	a, (hl)
   022C 12            [ 7]  557 	ld	(de), a
                     022D   558 	C$aes256.c$46$1_0$40	= .
                            559 	.globl	C$aes256.c$46$1_0$40
                            560 ;/work/source_code/testingfiles/aes256.c:46: s[3]  = t[15]; s[7]  = t[3];  s[11] = t[7];  s[15] = t[11];
   022D DD 5E 04      [19]  561 	ld	e, 4 (ix)
   0230 DD 56 05      [19]  562 	ld	d, 5 (ix)
   0233 13            [ 6]  563 	inc	de
   0234 13            [ 6]  564 	inc	de
   0235 13            [ 6]  565 	inc	de
   0236 69            [ 4]  566 	ld	l, c
   0237 60            [ 4]  567 	ld	h, b
   0238 C5            [11]  568 	push	bc
   0239 01 0F 00      [10]  569 	ld	bc, #0x000f
   023C 09            [11]  570 	add	hl, bc
   023D C1            [10]  571 	pop	bc
   023E 7E            [ 7]  572 	ld	a, (hl)
   023F 12            [ 7]  573 	ld	(de), a
   0240 DD 7E 04      [19]  574 	ld	a, 4 (ix)
   0243 C6 07         [ 7]  575 	add	a, #0x07
   0245 5F            [ 4]  576 	ld	e, a
   0246 DD 7E 05      [19]  577 	ld	a, 5 (ix)
   0249 CE 00         [ 7]  578 	adc	a, #0x00
   024B 57            [ 4]  579 	ld	d, a
   024C 69            [ 4]  580 	ld	l, c
   024D 60            [ 4]  581 	ld	h, b
   024E 23            [ 6]  582 	inc	hl
   024F 23            [ 6]  583 	inc	hl
   0250 23            [ 6]  584 	inc	hl
   0251 7E            [ 7]  585 	ld	a, (hl)
   0252 12            [ 7]  586 	ld	(de), a
   0253 DD 7E 04      [19]  587 	ld	a, 4 (ix)
   0256 C6 0B         [ 7]  588 	add	a, #0x0b
   0258 5F            [ 4]  589 	ld	e, a
   0259 DD 7E 05      [19]  590 	ld	a, 5 (ix)
   025C CE 00         [ 7]  591 	adc	a, #0x00
   025E 57            [ 4]  592 	ld	d, a
   025F 69            [ 4]  593 	ld	l, c
   0260 60            [ 4]  594 	ld	h, b
   0261 C5            [11]  595 	push	bc
   0262 01 07 00      [10]  596 	ld	bc, #0x0007
   0265 09            [11]  597 	add	hl, bc
   0266 C1            [10]  598 	pop	bc
   0267 7E            [ 7]  599 	ld	a, (hl)
   0268 12            [ 7]  600 	ld	(de), a
   0269 DD 7E 04      [19]  601 	ld	a, 4 (ix)
   026C C6 0F         [ 7]  602 	add	a, #0x0f
   026E 5F            [ 4]  603 	ld	e, a
   026F DD 7E 05      [19]  604 	ld	a, 5 (ix)
   0272 CE 00         [ 7]  605 	adc	a, #0x00
   0274 57            [ 4]  606 	ld	d, a
   0275 69            [ 4]  607 	ld	l, c
   0276 60            [ 4]  608 	ld	h, b
   0277 01 0B 00      [10]  609 	ld	bc, #0x000b
   027A 09            [11]  610 	add	hl, bc
   027B 7E            [ 7]  611 	ld	a, (hl)
   027C 12            [ 7]  612 	ld	(de), a
   027D                     613 00101$:
                     027D   614 	C$aes256.c$47$1_0$40	= .
                            615 	.globl	C$aes256.c$47$1_0$40
                            616 ;/work/source_code/testingfiles/aes256.c:47: }
   027D DD F9         [10]  617 	ld	sp, ix
   027F DD E1         [14]  618 	pop	ix
                     0281   619 	C$aes256.c$47$1_0$40	= .
                            620 	.globl	C$aes256.c$47$1_0$40
                     0281   621 	XFaes256$ShiftRows$0$0	= .
                            622 	.globl	XFaes256$ShiftRows$0$0
   0281 C9            [10]  623 	ret
                     0282   624 	Faes256$MixColumns$0$0	= .
                            625 	.globl	Faes256$MixColumns$0$0
                     0282   626 	C$aes256.c$49$1_0$43	= .
                            627 	.globl	C$aes256.c$49$1_0$43
                            628 ;/work/source_code/testingfiles/aes256.c:49: static void MixColumns(uint8_t *s) {
                            629 ;	---------------------------------
                            630 ; Function MixColumns
                            631 ; ---------------------------------
   0282                     632 _MixColumns:
   0282 DD E5         [15]  633 	push	ix
   0284 DD 21 00 00   [14]  634 	ld	ix,#0
   0288 DD 39         [15]  635 	add	ix,sp
   028A 21 E8 FF      [10]  636 	ld	hl, #-24
   028D 39            [11]  637 	add	hl, sp
   028E F9            [ 6]  638 	ld	sp, hl
                     028F   639 	C$aes256.c$50$2_0$43	= .
                            640 	.globl	C$aes256.c$50$2_0$43
                            641 ;/work/source_code/testingfiles/aes256.c:50: for (int i = 0; i < 4; ++i) {
   028F AF            [ 4]  642 	xor	a, a
   0290 DD 77 FE      [19]  643 	ld	-2 (ix), a
   0293 DD 77 FF      [19]  644 	ld	-1 (ix), a
   0296                     645 00111$:
   0296 DD 7E FE      [19]  646 	ld	a, -2 (ix)
   0299 D6 04         [ 7]  647 	sub	a, #0x04
   029B DD 7E FF      [19]  648 	ld	a, -1 (ix)
   029E 17            [ 4]  649 	rla
   029F 3F            [ 4]  650 	ccf
   02A0 1F            [ 4]  651 	rra
   02A1 DE 80         [ 7]  652 	sbc	a, #0x80
   02A3 D2r30r05      [10]  653 	jp	NC, 00113$
                     02A6   654 	C$aes256.c$51$3_0$44	= .
                            655 	.globl	C$aes256.c$51$3_0$44
                            656 ;/work/source_code/testingfiles/aes256.c:51: int a = 4 * i;
   02A6 DD 5E FE      [19]  657 	ld	e, -2 (ix)
   02A9 DD 56 FF      [19]  658 	ld	d, -1 (ix)
   02AC CB 23         [ 8]  659 	sla	e
   02AE CB 12         [ 8]  660 	rl	d
   02B0 CB 23         [ 8]  661 	sla	e
   02B2 CB 12         [ 8]  662 	rl	d
                     02B4   663 	C$aes256.c$52$3_0$44	= .
                            664 	.globl	C$aes256.c$52$3_0$44
                            665 ;/work/source_code/testingfiles/aes256.c:52: uint8_t x0 = s[a], x1 = s[a+1], x2 = s[a+2], x3 = s[a+3];
   02B4 DD 7E 04      [19]  666 	ld	a, 4 (ix)
   02B7 83            [ 4]  667 	add	a, e
   02B8 DD 77 FC      [19]  668 	ld	-4 (ix), a
   02BB DD 7E 05      [19]  669 	ld	a, 5 (ix)
   02BE 8A            [ 4]  670 	adc	a, d
   02BF DD 77 FD      [19]  671 	ld	-3 (ix), a
   02C2 DD 6E FC      [19]  672 	ld	l, -4 (ix)
   02C5 DD 66 FD      [19]  673 	ld	h, -3 (ix)
   02C8 7E            [ 7]  674 	ld	a, (hl)
   02C9 DD 77 E8      [19]  675 	ld	-24 (ix), a
   02CC 4B            [ 4]  676 	ld	c, e
   02CD 42            [ 4]  677 	ld	b, d
   02CE 03            [ 6]  678 	inc	bc
   02CF DD 7E 04      [19]  679 	ld	a, 4 (ix)
   02D2 81            [ 4]  680 	add	a, c
   02D3 4F            [ 4]  681 	ld	c, a
   02D4 DD 7E 05      [19]  682 	ld	a, 5 (ix)
   02D7 88            [ 4]  683 	adc	a, b
   02D8 47            [ 4]  684 	ld	b, a
   02D9 0A            [ 7]  685 	ld	a, (bc)
   02DA DD 77 E9      [19]  686 	ld	-23 (ix), a
   02DD 21 02 00      [10]  687 	ld	hl, #0x0002
   02E0 19            [11]  688 	add	hl, de
   02E1 DD 75 FA      [19]  689 	ld	-6 (ix), l
   02E4 DD 74 FB      [19]  690 	ld	-5 (ix), h
   02E7 DD 7E 04      [19]  691 	ld	a, 4 (ix)
   02EA DD 86 FA      [19]  692 	add	a, -6 (ix)
   02ED DD 77 EA      [19]  693 	ld	-22 (ix), a
   02F0 DD 7E 05      [19]  694 	ld	a, 5 (ix)
   02F3 DD 8E FB      [19]  695 	adc	a, -5 (ix)
   02F6 DD 77 EB      [19]  696 	ld	-21 (ix), a
   02F9 DD 6E EA      [19]  697 	ld	l, -22 (ix)
   02FC DD 66 EB      [19]  698 	ld	h, -21 (ix)
   02FF 7E            [ 7]  699 	ld	a, (hl)
   0300 DD 77 EC      [19]  700 	ld	-20 (ix), a
   0303 13            [ 6]  701 	inc	de
   0304 13            [ 6]  702 	inc	de
   0305 13            [ 6]  703 	inc	de
   0306 DD 7E 04      [19]  704 	ld	a, 4 (ix)
   0309 83            [ 4]  705 	add	a, e
   030A DD 77 ED      [19]  706 	ld	-19 (ix), a
   030D DD 7E 05      [19]  707 	ld	a, 5 (ix)
   0310 8A            [ 4]  708 	adc	a, d
   0311 DD 77 EE      [19]  709 	ld	-18 (ix), a
   0314 DD 6E ED      [19]  710 	ld	l, -19 (ix)
   0317 DD 66 EE      [19]  711 	ld	h, -18 (ix)
   031A 7E            [ 7]  712 	ld	a, (hl)
   031B DD 77 EF      [19]  713 	ld	-17 (ix), a
                     031E   714 	C$aes256.c$53$3_0$44	= .
                            715 	.globl	C$aes256.c$53$3_0$44
                            716 ;/work/source_code/testingfiles/aes256.c:53: s[a]   = xtime(x0) ^ xtime(x1) ^ x1 ^ x2 ^ x3;
   031E DD 7E FC      [19]  717 	ld	a, -4 (ix)
   0321 DD 77 F8      [19]  718 	ld	-8 (ix), a
   0324 DD 7E FD      [19]  719 	ld	a, -3 (ix)
   0327 DD 77 F9      [19]  720 	ld	-7 (ix), a
                     032A   721 	C$aes256.c$34$2_0$43	= .
                            722 	.globl	C$aes256.c$34$2_0$43
                            723 ;/work/source_code/testingfiles/aes256.c:34: return (uint8_t)((x << 1) ^ ((x & 0x80) ? 0x1B : 0));
   032A DD 7E E8      [19]  724 	ld	a, -24 (ix)
   032D 87            [ 4]  725 	add	a, a
   032E 6F            [ 4]  726 	ld	l, a
   032F DD 7E E8      [19]  727 	ld	a, -24 (ix)
   0332 E6 80         [ 7]  728 	and	a, #0x80
   0334 DD 77 F0      [19]  729 	ld	-16 (ix), a
   0337 DD 36 F1 00   [19]  730 	ld	-15 (ix), #0x00
   033B DD 7E F1      [19]  731 	ld	a, -15 (ix)
   033E DD B6 F0      [19]  732 	or	a, -16 (ix)
   0341 CAr4Ar03      [10]  733 	jp	Z, 00115$
   0344 11 1B 00      [10]  734 	ld	de, #0x001b
   0347 C3r4Dr03      [10]  735 	jp	00116$
   034A                     736 00115$:
   034A 11 00 00      [10]  737 	ld	de, #0x0000
   034D                     738 00116$:
   034D 7D            [ 4]  739 	ld	a, l
   034E DD 77 F2      [19]  740 	ld	-14 (ix), a
   0351 17            [ 4]  741 	rla
   0352 9F            [ 4]  742 	sbc	a, a
   0353 DD 77 F3      [19]  743 	ld	-13 (ix), a
   0356 7B            [ 4]  744 	ld	a, e
   0357 DD AE F2      [19]  745 	xor	a, -14 (ix)
   035A 5F            [ 4]  746 	ld	e, a
   035B 7A            [ 4]  747 	ld	a, d
   035C DD AE F3      [19]  748 	xor	a, -13 (ix)
   035F 57            [ 4]  749 	ld	d, a
   0360 DD 73 FA      [19]  750 	ld	-6 (ix), e
   0363 DD 7E E9      [19]  751 	ld	a, -23 (ix)
   0366 87            [ 4]  752 	add	a, a
   0367 DD 77 FB      [19]  753 	ld	-5 (ix), a
   036A DD 7E E9      [19]  754 	ld	a, -23 (ix)
   036D E6 80         [ 7]  755 	and	a, #0x80
   036F 5F            [ 4]  756 	ld	e, a
   0370 16 00         [ 7]  757 	ld	d, #0x00
   0372 7A            [ 4]  758 	ld	a, d
   0373 B3            [ 4]  759 	or	a, e
   0374 CAr7Dr03      [10]  760 	jp	Z, 00117$
   0377 21 1B 00      [10]  761 	ld	hl, #0x001b
   037A C3r80r03      [10]  762 	jp	00118$
   037D                     763 00117$:
   037D 21 00 00      [10]  764 	ld	hl, #0x0000
   0380                     765 00118$:
   0380 DD 7E FB      [19]  766 	ld	a, -5 (ix)
   0383 DD 77 FC      [19]  767 	ld	-4 (ix), a
   0386 17            [ 4]  768 	rla
   0387 9F            [ 4]  769 	sbc	a, a
   0388 DD 77 FD      [19]  770 	ld	-3 (ix), a
   038B 7D            [ 4]  771 	ld	a, l
   038C DD AE FC      [19]  772 	xor	a, -4 (ix)
   038F 6F            [ 4]  773 	ld	l, a
   0390 7C            [ 4]  774 	ld	a, h
   0391 DD AE FD      [19]  775 	xor	a, -3 (ix)
   0394 67            [ 4]  776 	ld	h, a
   0395 7D            [ 4]  777 	ld	a, l
                     0396   778 	C$aes256.c$53$5_0$49	= .
                            779 	.globl	C$aes256.c$53$5_0$49
                            780 ;/work/source_code/testingfiles/aes256.c:53: s[a]   = xtime(x0) ^ xtime(x1) ^ x1 ^ x2 ^ x3;
   0396 DD AE FA      [19]  781 	xor	a, -6 (ix)
   0399 DD AE E9      [19]  782 	xor	a, -23 (ix)
   039C DD AE EC      [19]  783 	xor	a, -20 (ix)
   039F DD AE EF      [19]  784 	xor	a, -17 (ix)
   03A2 DD 6E F8      [19]  785 	ld	l, -8 (ix)
   03A5 DD 66 F9      [19]  786 	ld	h, -7 (ix)
   03A8 77            [ 7]  787 	ld	(hl), a
                     03A9   788 	C$aes256.c$34$6_0$53	= .
                            789 	.globl	C$aes256.c$34$6_0$53
                            790 ;/work/source_code/testingfiles/aes256.c:34: return (uint8_t)((x << 1) ^ ((x & 0x80) ? 0x1B : 0));
   03A9 DD 6E FB      [19]  791 	ld	l, -5 (ix)
   03AC 7A            [ 4]  792 	ld	a, d
   03AD B3            [ 4]  793 	or	a, e
   03AE CArB7r03      [10]  794 	jp	Z, 00119$
   03B1 11 1B 00      [10]  795 	ld	de, #0x001b
   03B4 C3rBAr03      [10]  796 	jp	00120$
   03B7                     797 00119$:
   03B7 11 00 00      [10]  798 	ld	de, #0x0000
   03BA                     799 00120$:
   03BA 7D            [ 4]  800 	ld	a, l
   03BB 17            [ 4]  801 	rla
   03BC 9F            [ 4]  802 	sbc	a, a
   03BD F5            [11]  803 	push	af
   03BE 7B            [ 4]  804 	ld	a, e
   03BF AD            [ 4]  805 	xor	a, l
   03C0 5F            [ 4]  806 	ld	e, a
   03C1 F1            [10]  807 	pop	af
   03C2 AA            [ 4]  808 	xor	a, d
   03C3 57            [ 4]  809 	ld	d, a
   03C4 7B            [ 4]  810 	ld	a, e
                     03C5   811 	C$aes256.c$54$5_0$52	= .
                            812 	.globl	C$aes256.c$54$5_0$52
                            813 ;/work/source_code/testingfiles/aes256.c:54: s[a+1] = x0 ^ xtime(x1) ^ xtime(x2) ^ x2 ^ x3;
   03C5 DD AE E8      [19]  814 	xor	a, -24 (ix)
   03C8 DD 77 FA      [19]  815 	ld	-6 (ix), a
                     03CB   816 	C$aes256.c$34$6_0$56	= .
                            817 	.globl	C$aes256.c$34$6_0$56
                            818 ;/work/source_code/testingfiles/aes256.c:34: return (uint8_t)((x << 1) ^ ((x & 0x80) ? 0x1B : 0));
   03CB DD 7E EC      [19]  819 	ld	a, -20 (ix)
   03CE 87            [ 4]  820 	add	a, a
   03CF DD 77 FB      [19]  821 	ld	-5 (ix), a
   03D2 DD 7E EC      [19]  822 	ld	a, -20 (ix)
   03D5 E6 80         [ 7]  823 	and	a, #0x80
   03D7 5F            [ 4]  824 	ld	e, a
   03D8 16 00         [ 7]  825 	ld	d, #0x00
   03DA 7A            [ 4]  826 	ld	a, d
   03DB B3            [ 4]  827 	or	a, e
   03DC CArE5r03      [10]  828 	jp	Z, 00121$
   03DF 21 1B 00      [10]  829 	ld	hl, #0x001b
   03E2 C3rE8r03      [10]  830 	jp	00122$
   03E5                     831 00121$:
   03E5 21 00 00      [10]  832 	ld	hl, #0x0000
   03E8                     833 00122$:
   03E8 DD 7E FB      [19]  834 	ld	a, -5 (ix)
   03EB DD 77 FC      [19]  835 	ld	-4 (ix), a
   03EE 17            [ 4]  836 	rla
   03EF 9F            [ 4]  837 	sbc	a, a
   03F0 DD 77 FD      [19]  838 	ld	-3 (ix), a
   03F3 7D            [ 4]  839 	ld	a, l
   03F4 DD AE FC      [19]  840 	xor	a, -4 (ix)
   03F7 6F            [ 4]  841 	ld	l, a
   03F8 7C            [ 4]  842 	ld	a, h
   03F9 DD AE FD      [19]  843 	xor	a, -3 (ix)
   03FC 67            [ 4]  844 	ld	h, a
   03FD 7D            [ 4]  845 	ld	a, l
                     03FE   846 	C$aes256.c$54$5_0$55	= .
                            847 	.globl	C$aes256.c$54$5_0$55
                            848 ;/work/source_code/testingfiles/aes256.c:54: s[a+1] = x0 ^ xtime(x1) ^ xtime(x2) ^ x2 ^ x3;
   03FE DD AE FA      [19]  849 	xor	a, -6 (ix)
   0401 DD AE EC      [19]  850 	xor	a, -20 (ix)
   0404 DD AE EF      [19]  851 	xor	a, -17 (ix)
   0407 02            [ 7]  852 	ld	(bc), a
                     0408   853 	C$aes256.c$55$3_0$44	= .
                            854 	.globl	C$aes256.c$55$3_0$44
                            855 ;/work/source_code/testingfiles/aes256.c:55: s[a+2] = x0 ^ x1 ^ xtime(x2) ^ xtime(x3) ^ x3;
   0408 DD 7E E8      [19]  856 	ld	a, -24 (ix)
   040B DD AE E9      [19]  857 	xor	a, -23 (ix)
   040E 4F            [ 4]  858 	ld	c, a
                     040F   859 	C$aes256.c$34$6_0$59	= .
                            860 	.globl	C$aes256.c$34$6_0$59
                            861 ;/work/source_code/testingfiles/aes256.c:34: return (uint8_t)((x << 1) ^ ((x & 0x80) ? 0x1B : 0));
   040F DD 6E FB      [19]  862 	ld	l, -5 (ix)
   0412 7A            [ 4]  863 	ld	a, d
   0413 B3            [ 4]  864 	or	a, e
   0414 CAr1Dr04      [10]  865 	jp	Z, 00123$
   0417 11 1B 00      [10]  866 	ld	de, #0x001b
   041A C3r20r04      [10]  867 	jp	00124$
   041D                     868 00123$:
   041D 11 00 00      [10]  869 	ld	de, #0x0000
   0420                     870 00124$:
   0420 7D            [ 4]  871 	ld	a, l
   0421 17            [ 4]  872 	rla
   0422 9F            [ 4]  873 	sbc	a, a
   0423 F5            [11]  874 	push	af
   0424 7B            [ 4]  875 	ld	a, e
   0425 AD            [ 4]  876 	xor	a, l
   0426 5F            [ 4]  877 	ld	e, a
   0427 F1            [10]  878 	pop	af
   0428 AA            [ 4]  879 	xor	a, d
   0429 57            [ 4]  880 	ld	d, a
   042A 7B            [ 4]  881 	ld	a, e
                     042B   882 	C$aes256.c$55$5_0$58	= .
                            883 	.globl	C$aes256.c$55$5_0$58
                            884 ;/work/source_code/testingfiles/aes256.c:55: s[a+2] = x0 ^ x1 ^ xtime(x2) ^ xtime(x3) ^ x3;
   042B A9            [ 4]  885 	xor	a, c
   042C DD 77 F4      [19]  886 	ld	-12 (ix), a
                     042F   887 	C$aes256.c$34$6_0$62	= .
                            888 	.globl	C$aes256.c$34$6_0$62
                            889 ;/work/source_code/testingfiles/aes256.c:34: return (uint8_t)((x << 1) ^ ((x & 0x80) ? 0x1B : 0));
   042F DD 7E EF      [19]  890 	ld	a, -17 (ix)
   0432 87            [ 4]  891 	add	a, a
   0433 DD 77 F5      [19]  892 	ld	-11 (ix), a
   0436 DD 7E EF      [19]  893 	ld	a, -17 (ix)
   0439 E6 80         [ 7]  894 	and	a, #0x80
   043B DD 77 F6      [19]  895 	ld	-10 (ix), a
   043E DD 36 F7 00   [19]  896 	ld	-9 (ix), #0x00
   0442 DD 7E F7      [19]  897 	ld	a, -9 (ix)
   0445 DD B6 F6      [19]  898 	or	a, -10 (ix)
   0448 CAr56r04      [10]  899 	jp	Z, 00125$
   044B DD 36 F8 1B   [19]  900 	ld	-8 (ix), #0x1b
   044F AF            [ 4]  901 	xor	a, a
   0450 DD 77 F9      [19]  902 	ld	-7 (ix), a
   0453 C3r5Dr04      [10]  903 	jp	00126$
   0456                     904 00125$:
   0456 AF            [ 4]  905 	xor	a, a
   0457 DD 77 F8      [19]  906 	ld	-8 (ix), a
   045A DD 77 F9      [19]  907 	ld	-7 (ix), a
   045D                     908 00126$:
   045D DD 7E F5      [19]  909 	ld	a, -11 (ix)
   0460 DD 77 FA      [19]  910 	ld	-6 (ix), a
   0463 17            [ 4]  911 	rla
   0464 9F            [ 4]  912 	sbc	a, a
   0465 DD 77 FB      [19]  913 	ld	-5 (ix), a
   0468 DD 7E FA      [19]  914 	ld	a, -6 (ix)
   046B DD AE F8      [19]  915 	xor	a, -8 (ix)
   046E DD 77 FC      [19]  916 	ld	-4 (ix), a
   0471 DD 7E FB      [19]  917 	ld	a, -5 (ix)
   0474 DD AE F9      [19]  918 	xor	a, -7 (ix)
   0477 DD 77 FD      [19]  919 	ld	-3 (ix), a
   047A DD 7E FC      [19]  920 	ld	a, -4 (ix)
   047D DD 77 FD      [19]  921 	ld	-3 (ix), a
                     0480   922 	C$aes256.c$55$5_0$61	= .
                            923 	.globl	C$aes256.c$55$5_0$61
                            924 ;/work/source_code/testingfiles/aes256.c:55: s[a+2] = x0 ^ x1 ^ xtime(x2) ^ xtime(x3) ^ x3;
   0480 DD 7E FD      [19]  925 	ld	a, -3 (ix)
   0483 DD AE F4      [19]  926 	xor	a, -12 (ix)
   0486 DD 77 FD      [19]  927 	ld	-3 (ix), a
   0489 DD 7E FD      [19]  928 	ld	a, -3 (ix)
   048C DD AE EF      [19]  929 	xor	a, -17 (ix)
   048F DD 77 FD      [19]  930 	ld	-3 (ix), a
   0492 C1            [10]  931 	pop	bc
   0493 E1            [10]  932 	pop	hl
   0494 E5            [11]  933 	push	hl
   0495 C5            [11]  934 	push	bc
   0496 DD 7E FD      [19]  935 	ld	a, -3 (ix)
   0499 77            [ 7]  936 	ld	(hl), a
                     049A   937 	C$aes256.c$34$6_0$65	= .
                            938 	.globl	C$aes256.c$34$6_0$65
                            939 ;/work/source_code/testingfiles/aes256.c:34: return (uint8_t)((x << 1) ^ ((x & 0x80) ? 0x1B : 0));
   049A DD 7E F1      [19]  940 	ld	a, -15 (ix)
   049D DD B6 F0      [19]  941 	or	a, -16 (ix)
   04A0 CArAEr04      [10]  942 	jp	Z, 00127$
   04A3 DD 36 FA 1B   [19]  943 	ld	-6 (ix), #0x1b
   04A7 AF            [ 4]  944 	xor	a, a
   04A8 DD 77 FB      [19]  945 	ld	-5 (ix), a
   04AB C3rB5r04      [10]  946 	jp	00128$
   04AE                     947 00127$:
   04AE AF            [ 4]  948 	xor	a, a
   04AF DD 77 FA      [19]  949 	ld	-6 (ix), a
   04B2 DD 77 FB      [19]  950 	ld	-5 (ix), a
   04B5                     951 00128$:
   04B5 DD 7E F2      [19]  952 	ld	a, -14 (ix)
   04B8 DD AE FA      [19]  953 	xor	a, -6 (ix)
   04BB DD 77 FC      [19]  954 	ld	-4 (ix), a
   04BE DD 7E F3      [19]  955 	ld	a, -13 (ix)
   04C1 DD AE FB      [19]  956 	xor	a, -5 (ix)
   04C4 DD 77 FD      [19]  957 	ld	-3 (ix), a
   04C7 DD 7E FC      [19]  958 	ld	a, -4 (ix)
   04CA DD 77 FD      [19]  959 	ld	-3 (ix), a
                     04CD   960 	C$aes256.c$56$5_0$64	= .
                            961 	.globl	C$aes256.c$56$5_0$64
                            962 ;/work/source_code/testingfiles/aes256.c:56: s[a+3] = xtime(x0) ^ x0 ^ x1 ^ x2 ^ xtime(x3);
   04CD DD 7E FD      [19]  963 	ld	a, -3 (ix)
   04D0 DD AE E8      [19]  964 	xor	a, -24 (ix)
   04D3 DD 77 FD      [19]  965 	ld	-3 (ix), a
   04D6 DD 7E FD      [19]  966 	ld	a, -3 (ix)
   04D9 DD AE E9      [19]  967 	xor	a, -23 (ix)
   04DC DD 77 FD      [19]  968 	ld	-3 (ix), a
   04DF DD 7E FD      [19]  969 	ld	a, -3 (ix)
   04E2 DD AE EC      [19]  970 	xor	a, -20 (ix)
   04E5 DD 77 FD      [19]  971 	ld	-3 (ix), a
                     04E8   972 	C$aes256.c$34$6_0$68	= .
                            973 	.globl	C$aes256.c$34$6_0$68
                            974 ;/work/source_code/testingfiles/aes256.c:34: return (uint8_t)((x << 1) ^ ((x & 0x80) ? 0x1B : 0));
   04E8 DD 7E F5      [19]  975 	ld	a, -11 (ix)
   04EB DD 77 FC      [19]  976 	ld	-4 (ix), a
   04EE DD 7E F7      [19]  977 	ld	a, -9 (ix)
   04F1 DD B6 F6      [19]  978 	or	a, -10 (ix)
   04F4 CAr02r05      [10]  979 	jp	Z, 00129$
   04F7 DD 36 FA 1B   [19]  980 	ld	-6 (ix), #0x1b
   04FB AF            [ 4]  981 	xor	a, a
   04FC DD 77 FB      [19]  982 	ld	-5 (ix), a
   04FF C3r09r05      [10]  983 	jp	00130$
   0502                     984 00129$:
   0502 AF            [ 4]  985 	xor	a, a
   0503 DD 77 FA      [19]  986 	ld	-6 (ix), a
   0506 DD 77 FB      [19]  987 	ld	-5 (ix), a
   0509                     988 00130$:
   0509 DD 7E FC      [19]  989 	ld	a, -4 (ix)
   050C 4F            [ 4]  990 	ld	c, a
   050D 17            [ 4]  991 	rla
   050E 9F            [ 4]  992 	sbc	a, a
   050F F5            [11]  993 	push	af
   0510 79            [ 4]  994 	ld	a, c
   0511 DD AE FA      [19]  995 	xor	a, -6 (ix)
   0514 4F            [ 4]  996 	ld	c, a
   0515 F1            [10]  997 	pop	af
   0516 DD AE FB      [19]  998 	xor	a, -5 (ix)
                     0519   999 	C$aes256.c$56$5_0$67	= .
                           1000 	.globl	C$aes256.c$56$5_0$67
                           1001 ;/work/source_code/testingfiles/aes256.c:56: s[a+3] = xtime(x0) ^ x0 ^ x1 ^ x2 ^ xtime(x3);
   0519 DD 7E FD      [19] 1002 	ld	a, -3 (ix)
   051C A9            [ 4] 1003 	xor	a, c
   051D DD 6E ED      [19] 1004 	ld	l, -19 (ix)
   0520 DD 66 EE      [19] 1005 	ld	h, -18 (ix)
   0523 77            [ 7] 1006 	ld	(hl), a
                     0524  1007 	C$aes256.c$50$2_0$43	= .
                           1008 	.globl	C$aes256.c$50$2_0$43
                           1009 ;/work/source_code/testingfiles/aes256.c:50: for (int i = 0; i < 4; ++i) {
   0524 DD 34 FE      [23] 1010 	inc	-2 (ix)
   0527 C2r2Dr05      [10] 1011 	jp	NZ, 00184$
   052A DD 34 FF      [23] 1012 	inc	-1 (ix)
   052D                    1013 00184$:
   052D C3r96r02      [10] 1014 	jp	00111$
   0530                    1015 00113$:
                     0530  1016 	C$aes256.c$58$2_0$43	= .
                           1017 	.globl	C$aes256.c$58$2_0$43
                           1018 ;/work/source_code/testingfiles/aes256.c:58: }
   0530 DD F9         [10] 1019 	ld	sp, ix
   0532 DD E1         [14] 1020 	pop	ix
                     0534  1021 	C$aes256.c$58$2_0$43	= .
                           1022 	.globl	C$aes256.c$58$2_0$43
                     0534  1023 	XFaes256$MixColumns$0$0	= .
                           1024 	.globl	XFaes256$MixColumns$0$0
   0534 C9            [10] 1025 	ret
                     0535  1026 	Faes256$AddRoundKey$0$0	= .
                           1027 	.globl	Faes256$AddRoundKey$0$0
                     0535  1028 	C$aes256.c$60$2_0$71	= .
                           1029 	.globl	C$aes256.c$60$2_0$71
                           1030 ;/work/source_code/testingfiles/aes256.c:60: static void AddRoundKey(uint8_t *s, const uint8_t *rk) {
                           1031 ;	---------------------------------
                           1032 ; Function AddRoundKey
                           1033 ; ---------------------------------
   0535                    1034 _AddRoundKey:
   0535 DD E5         [15] 1035 	push	ix
   0537 DD 21 00 00   [14] 1036 	ld	ix,#0
   053B DD 39         [15] 1037 	add	ix,sp
   053D 3B            [ 6] 1038 	dec	sp
                     053E  1039 	C$aes256.c$61$2_0$71	= .
                           1040 	.globl	C$aes256.c$61$2_0$71
                           1041 ;/work/source_code/testingfiles/aes256.c:61: for (int i = 0; i < 16; ++i) s[i] ^= rk[i];
   053E 01 00 00      [10] 1042 	ld	bc, #0x0000
   0541                    1043 00103$:
   0541 79            [ 4] 1044 	ld	a, c
   0542 D6 10         [ 7] 1045 	sub	a, #0x10
   0544 78            [ 4] 1046 	ld	a, b
   0545 17            [ 4] 1047 	rla
   0546 3F            [ 4] 1048 	ccf
   0547 1F            [ 4] 1049 	rra
   0548 DE 80         [ 7] 1050 	sbc	a, #0x80
   054A D2r6Br05      [10] 1051 	jp	NC, 00105$
   054D DD 7E 04      [19] 1052 	ld	a, 4 (ix)
   0550 81            [ 4] 1053 	add	a, c
   0551 5F            [ 4] 1054 	ld	e, a
   0552 DD 7E 05      [19] 1055 	ld	a, 5 (ix)
   0555 88            [ 4] 1056 	adc	a, b
   0556 57            [ 4] 1057 	ld	d, a
   0557 1A            [ 7] 1058 	ld	a, (de)
   0558 DD 77 FF      [19] 1059 	ld	-1 (ix), a
   055B DD 6E 06      [19] 1060 	ld	l, 6 (ix)
   055E DD 66 07      [19] 1061 	ld	h, 7 (ix)
   0561 09            [11] 1062 	add	hl, bc
   0562 7E            [ 7] 1063 	ld	a, (hl)
   0563 DD AE FF      [19] 1064 	xor	a, -1 (ix)
   0566 12            [ 7] 1065 	ld	(de), a
   0567 03            [ 6] 1066 	inc	bc
   0568 C3r41r05      [10] 1067 	jp	00103$
   056B                    1068 00105$:
                     056B  1069 	C$aes256.c$62$2_0$71	= .
                           1070 	.globl	C$aes256.c$62$2_0$71
                           1071 ;/work/source_code/testingfiles/aes256.c:62: }
   056B 33            [ 6] 1072 	inc	sp
   056C DD E1         [14] 1073 	pop	ix
                     056E  1074 	C$aes256.c$62$2_0$71	= .
                           1075 	.globl	C$aes256.c$62$2_0$71
                     056E  1076 	XFaes256$AddRoundKey$0$0	= .
                           1077 	.globl	XFaes256$AddRoundKey$0$0
   056E C9            [10] 1078 	ret
                     056F  1079 	Faes256$RotWord$0$0	= .
                           1080 	.globl	Faes256$RotWord$0$0
                     056F  1081 	C$aes256.c$65$2_0$73	= .
                           1082 	.globl	C$aes256.c$65$2_0$73
                           1083 ;/work/source_code/testingfiles/aes256.c:65: static void RotWord(uint8_t *w) {
                           1084 ;	---------------------------------
                           1085 ; Function RotWord
                           1086 ; ---------------------------------
   056F                    1087 _RotWord:
   056F DD E5         [15] 1088 	push	ix
   0571 DD 21 00 00   [14] 1089 	ld	ix,#0
   0575 DD 39         [15] 1090 	add	ix,sp
   0577 F5            [11] 1091 	push	af
   0578 3B            [ 6] 1092 	dec	sp
                     0579  1093 	C$aes256.c$66$1_0$73	= .
                           1094 	.globl	C$aes256.c$66$1_0$73
                           1095 ;/work/source_code/testingfiles/aes256.c:66: uint8_t t = w[0];
   0579 DD 4E 04      [19] 1096 	ld	c, 4 (ix)
   057C DD 46 05      [19] 1097 	ld	b, 5 (ix)
   057F 0A            [ 7] 1098 	ld	a, (bc)
   0580 DD 77 FD      [19] 1099 	ld	-3 (ix), a
                     0583  1100 	C$aes256.c$67$1_0$73	= .
                           1101 	.globl	C$aes256.c$67$1_0$73
                           1102 ;/work/source_code/testingfiles/aes256.c:67: w[0] = w[1]; w[1] = w[2]; w[2] = w[3]; w[3] = t;
   0583 59            [ 4] 1103 	ld	e, c
   0584 50            [ 4] 1104 	ld	d, b
   0585 13            [ 6] 1105 	inc	de
   0586 1A            [ 7] 1106 	ld	a, (de)
   0587 02            [ 7] 1107 	ld	(bc), a
   0588 21 02 00      [10] 1108 	ld	hl, #0x0002
   058B 09            [11] 1109 	add	hl, bc
   058C DD 75 FE      [19] 1110 	ld	-2 (ix), l
   058F DD 74 FF      [19] 1111 	ld	-1 (ix), h
   0592 DD 6E FE      [19] 1112 	ld	l, -2 (ix)
   0595 DD 66 FF      [19] 1113 	ld	h, -1 (ix)
   0598 7E            [ 7] 1114 	ld	a, (hl)
   0599 12            [ 7] 1115 	ld	(de), a
   059A 03            [ 6] 1116 	inc	bc
   059B 03            [ 6] 1117 	inc	bc
   059C 03            [ 6] 1118 	inc	bc
   059D 0A            [ 7] 1119 	ld	a, (bc)
   059E DD 6E FE      [19] 1120 	ld	l, -2 (ix)
   05A1 DD 66 FF      [19] 1121 	ld	h, -1 (ix)
   05A4 77            [ 7] 1122 	ld	(hl), a
   05A5 DD 7E FD      [19] 1123 	ld	a, -3 (ix)
   05A8 02            [ 7] 1124 	ld	(bc), a
   05A9                    1125 00101$:
                     05A9  1126 	C$aes256.c$68$1_0$73	= .
                           1127 	.globl	C$aes256.c$68$1_0$73
                           1128 ;/work/source_code/testingfiles/aes256.c:68: }
   05A9 DD F9         [10] 1129 	ld	sp, ix
   05AB DD E1         [14] 1130 	pop	ix
                     05AD  1131 	C$aes256.c$68$1_0$73	= .
                           1132 	.globl	C$aes256.c$68$1_0$73
                     05AD  1133 	XFaes256$RotWord$0$0	= .
                           1134 	.globl	XFaes256$RotWord$0$0
   05AD C9            [10] 1135 	ret
                     05AE  1136 	Faes256$SubWord$0$0	= .
                           1137 	.globl	Faes256$SubWord$0$0
                     05AE  1138 	C$aes256.c$71$1_0$75	= .
                           1139 	.globl	C$aes256.c$71$1_0$75
                           1140 ;/work/source_code/testingfiles/aes256.c:71: static void SubWord(uint8_t *w) {
                           1141 ;	---------------------------------
                           1142 ; Function SubWord
                           1143 ; ---------------------------------
   05AE                    1144 _SubWord:
   05AE DD E5         [15] 1145 	push	ix
   05B0 DD 21 00 00   [14] 1146 	ld	ix,#0
   05B4 DD 39         [15] 1147 	add	ix,sp
                     05B6  1148 	C$aes256.c$72$1_0$75	= .
                           1149 	.globl	C$aes256.c$72$1_0$75
                           1150 ;/work/source_code/testingfiles/aes256.c:72: w[0] = SBOX[w[0]]; w[1] = SBOX[w[1]];
   05B6 DD 4E 04      [19] 1151 	ld	c, 4 (ix)
   05B9 DD 46 05      [19] 1152 	ld	b, 5 (ix)
   05BC 0A            [ 7] 1153 	ld	a, (bc)
   05BD C6r2C         [ 7] 1154 	add	a, #<(_SBOX)
   05BF 5F            [ 4] 1155 	ld	e, a
   05C0 3E 00         [ 7] 1156 	ld	a, #0x00
   05C2 CEs00         [ 7] 1157 	adc	a, #>(_SBOX)
   05C4 57            [ 4] 1158 	ld	d, a
   05C5 1A            [ 7] 1159 	ld	a, (de)
   05C6 02            [ 7] 1160 	ld	(bc), a
   05C7 59            [ 4] 1161 	ld	e, c
   05C8 50            [ 4] 1162 	ld	d, b
   05C9 13            [ 6] 1163 	inc	de
   05CA 1A            [ 7] 1164 	ld	a, (de)
   05CB C6r2C         [ 7] 1165 	add	a, #<(_SBOX)
   05CD 6F            [ 4] 1166 	ld	l, a
   05CE 3E 00         [ 7] 1167 	ld	a, #0x00
   05D0 CEs00         [ 7] 1168 	adc	a, #>(_SBOX)
   05D2 67            [ 4] 1169 	ld	h, a
   05D3 7E            [ 7] 1170 	ld	a, (hl)
   05D4 12            [ 7] 1171 	ld	(de), a
                     05D5  1172 	C$aes256.c$73$1_0$75	= .
                           1173 	.globl	C$aes256.c$73$1_0$75
                           1174 ;/work/source_code/testingfiles/aes256.c:73: w[2] = SBOX[w[2]]; w[3] = SBOX[w[3]];
   05D5 59            [ 4] 1175 	ld	e, c
   05D6 50            [ 4] 1176 	ld	d, b
   05D7 13            [ 6] 1177 	inc	de
   05D8 13            [ 6] 1178 	inc	de
   05D9 1A            [ 7] 1179 	ld	a, (de)
   05DA C6r2C         [ 7] 1180 	add	a, #<(_SBOX)
   05DC 6F            [ 4] 1181 	ld	l, a
   05DD 3E 00         [ 7] 1182 	ld	a, #0x00
   05DF CEs00         [ 7] 1183 	adc	a, #>(_SBOX)
   05E1 67            [ 4] 1184 	ld	h, a
   05E2 7E            [ 7] 1185 	ld	a, (hl)
   05E3 12            [ 7] 1186 	ld	(de), a
   05E4 03            [ 6] 1187 	inc	bc
   05E5 03            [ 6] 1188 	inc	bc
   05E6 03            [ 6] 1189 	inc	bc
   05E7 0A            [ 7] 1190 	ld	a, (bc)
   05E8 C6r2C         [ 7] 1191 	add	a, #<(_SBOX)
   05EA 5F            [ 4] 1192 	ld	e, a
   05EB 3E 00         [ 7] 1193 	ld	a, #0x00
   05ED CEs00         [ 7] 1194 	adc	a, #>(_SBOX)
   05EF 57            [ 4] 1195 	ld	d, a
   05F0 1A            [ 7] 1196 	ld	a, (de)
   05F1 02            [ 7] 1197 	ld	(bc), a
   05F2                    1198 00101$:
                     05F2  1199 	C$aes256.c$74$1_0$75	= .
                           1200 	.globl	C$aes256.c$74$1_0$75
                           1201 ;/work/source_code/testingfiles/aes256.c:74: }
   05F2 DD E1         [14] 1202 	pop	ix
                     05F4  1203 	C$aes256.c$74$1_0$75	= .
                           1204 	.globl	C$aes256.c$74$1_0$75
                     05F4  1205 	XFaes256$SubWord$0$0	= .
                           1206 	.globl	XFaes256$SubWord$0$0
   05F4 C9            [10] 1207 	ret
                     05F5  1208 	Faes256$KeyExpansion$0$0	= .
                           1209 	.globl	Faes256$KeyExpansion$0$0
                     05F5  1210 	C$aes256.c$77$1_0$77	= .
                           1211 	.globl	C$aes256.c$77$1_0$77
                           1212 ;/work/source_code/testingfiles/aes256.c:77: static void KeyExpansion(const uint8_t key[32], uint8_t roundKeys[EXPANDED_KEY_BYTES]) {
                           1213 ;	---------------------------------
                           1214 ; Function KeyExpansion
                           1215 ; ---------------------------------
   05F5                    1216 _KeyExpansion:
   05F5 DD E5         [15] 1217 	push	ix
   05F7 DD 21 00 00   [14] 1218 	ld	ix,#0
   05FB DD 39         [15] 1219 	add	ix,sp
   05FD 21 EE FF      [10] 1220 	ld	hl, #-18
   0600 39            [11] 1221 	add	hl, sp
   0601 F9            [ 6] 1222 	ld	sp, hl
                     0602  1223 	C$aes256.c$78$1_0$77	= .
                           1224 	.globl	C$aes256.c$78$1_0$77
                           1225 ;/work/source_code/testingfiles/aes256.c:78: memcpy(roundKeys, key, 32);
   0602 DD 5E 06      [19] 1226 	ld	e, 6 (ix)
   0605 DD 56 07      [19] 1227 	ld	d, 7 (ix)
   0608 DD 6E 04      [19] 1228 	ld	l, 4 (ix)
   060B DD 66 05      [19] 1229 	ld	h, 5 (ix)
   060E 01 20 00      [10] 1230 	ld	bc, #0x0020
   0611 ED B0         [21] 1231 	ldir
                     0613  1232 	C$aes256.c$79$2_0$78	= .
                           1233 	.globl	C$aes256.c$79$2_0$78
                           1234 ;/work/source_code/testingfiles/aes256.c:79: int bytes = 32;
   0613 DD 36 F2 20   [19] 1235 	ld	-14 (ix), #0x20
   0617 AF            [ 4] 1236 	xor	a, a
   0618 DD 77 F3      [19] 1237 	ld	-13 (ix), a
                     061B  1238 	C$aes256.c$83$3_1$80	= .
                           1239 	.globl	C$aes256.c$83$3_1$80
                           1240 ;/work/source_code/testingfiles/aes256.c:83: while (bytes < EXPANDED_KEY_BYTES) {
   061B 21 00 00      [10] 1241 	ld	hl, #0
   061E 39            [11] 1242 	add	hl, sp
   061F DD 75 F4      [19] 1243 	ld	-12 (ix), l
   0622 DD 74 F5      [19] 1244 	ld	-11 (ix), h
   0625 DD 7E F4      [19] 1245 	ld	a, -12 (ix)
   0628 DD 77 F6      [19] 1246 	ld	-10 (ix), a
   062B DD 7E F5      [19] 1247 	ld	a, -11 (ix)
   062E DD 77 F7      [19] 1248 	ld	-9 (ix), a
   0631 DD 7E F4      [19] 1249 	ld	a, -12 (ix)
   0634 DD 77 F8      [19] 1250 	ld	-8 (ix), a
   0637 DD 7E F5      [19] 1251 	ld	a, -11 (ix)
   063A DD 77 F9      [19] 1252 	ld	-7 (ix), a
   063D DD 36 FA 01   [19] 1253 	ld	-6 (ix), #0x01
   0641 AF            [ 4] 1254 	xor	a, a
   0642 DD 77 FB      [19] 1255 	ld	-5 (ix), a
   0645                    1256 00109$:
   0645 DD 7E F2      [19] 1257 	ld	a, -14 (ix)
   0648 D6 F0         [ 7] 1258 	sub	a, #0xf0
   064A DD 7E F3      [19] 1259 	ld	a, -13 (ix)
   064D 17            [ 4] 1260 	rla
   064E 3F            [ 4] 1261 	ccf
   064F 1F            [ 4] 1262 	rra
   0650 DE 80         [ 7] 1263 	sbc	a, #0x80
   0652 D2r8Fr07      [10] 1264 	jp	NC, 00118$
                     0655  1265 	C$aes256.c$85$3_1$80	= .
                           1266 	.globl	C$aes256.c$85$3_1$80
                           1267 ;/work/source_code/testingfiles/aes256.c:85: for (int i = 0; i < 4; ++i) temp[i] = roundKeys[bytes - 4 + i];
   0655 DD 7E F2      [19] 1268 	ld	a, -14 (ix)
   0658 C6 FC         [ 7] 1269 	add	a, #0xfc
   065A DD 77 FC      [19] 1270 	ld	-4 (ix), a
   065D DD 7E F3      [19] 1271 	ld	a, -13 (ix)
   0660 CE FF         [ 7] 1272 	adc	a, #0xff
   0662 DD 77 FD      [19] 1273 	ld	-3 (ix), a
   0665 01 00 00      [10] 1274 	ld	bc, #0x0000
   0668                    1275 00113$:
   0668 79            [ 4] 1276 	ld	a, c
   0669 D6 04         [ 7] 1277 	sub	a, #0x04
   066B 78            [ 4] 1278 	ld	a, b
   066C 17            [ 4] 1279 	rla
   066D 3F            [ 4] 1280 	ccf
   066E 1F            [ 4] 1281 	rra
   066F DE 80         [ 7] 1282 	sbc	a, #0x80
   0671 D2r9Fr06      [10] 1283 	jp	NC, 00101$
   0674 DD 7E F4      [19] 1284 	ld	a, -12 (ix)
   0677 81            [ 4] 1285 	add	a, c
   0678 DD 77 FE      [19] 1286 	ld	-2 (ix), a
   067B DD 7E F5      [19] 1287 	ld	a, -11 (ix)
   067E 88            [ 4] 1288 	adc	a, b
   067F DD 77 FF      [19] 1289 	ld	-1 (ix), a
   0682 DD 7E FC      [19] 1290 	ld	a, -4 (ix)
   0685 81            [ 4] 1291 	add	a, c
   0686 5F            [ 4] 1292 	ld	e, a
   0687 DD 7E FD      [19] 1293 	ld	a, -3 (ix)
   068A 88            [ 4] 1294 	adc	a, b
   068B 57            [ 4] 1295 	ld	d, a
   068C DD 6E 06      [19] 1296 	ld	l, 6 (ix)
   068F DD 66 07      [19] 1297 	ld	h, 7 (ix)
   0692 19            [11] 1298 	add	hl, de
   0693 7E            [ 7] 1299 	ld	a, (hl)
   0694 DD 6E FE      [19] 1300 	ld	l, -2 (ix)
   0697 DD 66 FF      [19] 1301 	ld	h, -1 (ix)
   069A 77            [ 7] 1302 	ld	(hl), a
   069B 03            [ 6] 1303 	inc	bc
   069C C3r68r06      [10] 1304 	jp	00113$
   069F                    1305 00101$:
                     069F  1306 	C$aes256.c$87$1_1$77	= .
                           1307 	.globl	C$aes256.c$87$1_1$77
                           1308 ;/work/source_code/testingfiles/aes256.c:87: if (bytes % (Nk * 4) == 0) {
   069F 21 20 00      [10] 1309 	ld	hl, #0x0020
   06A2 E5            [11] 1310 	push	hl
   06A3 DD 6E F2      [19] 1311 	ld	l, -14 (ix)
   06A6 DD 66 F3      [19] 1312 	ld	h, -13 (ix)
   06A9 E5            [11] 1313 	push	hl
   06AA CDr00r00      [17] 1314 	call	__modsint
   06AD F1            [10] 1315 	pop	af
   06AE F1            [10] 1316 	pop	af
   06AF DD 75 FE      [19] 1317 	ld	-2 (ix), l
   06B2 DD 74 FF      [19] 1318 	ld	-1 (ix), h
   06B5 DD 7E FF      [19] 1319 	ld	a, -1 (ix)
   06B8 DD B6 FE      [19] 1320 	or	a, -2 (ix)
   06BB C2rFCr06      [10] 1321 	jp	NZ, 00104$
                     06BE  1322 	C$aes256.c$88$3_1$81	= .
                           1323 	.globl	C$aes256.c$88$3_1$81
                           1324 ;/work/source_code/testingfiles/aes256.c:88: RotWord(temp);
   06BE DD 4E F4      [19] 1325 	ld	c, -12 (ix)
   06C1 DD 46 F5      [19] 1326 	ld	b, -11 (ix)
   06C4 C5            [11] 1327 	push	bc
   06C5 CDr6Fr05      [17] 1328 	call	_RotWord
   06C8 F1            [10] 1329 	pop	af
                     06C9  1330 	C$aes256.c$89$3_1$81	= .
                           1331 	.globl	C$aes256.c$89$3_1$81
                           1332 ;/work/source_code/testingfiles/aes256.c:89: SubWord(temp);
   06C9 DD 4E F4      [19] 1333 	ld	c, -12 (ix)
   06CC DD 46 F5      [19] 1334 	ld	b, -11 (ix)
   06CF C5            [11] 1335 	push	bc
   06D0 CDrAEr05      [17] 1336 	call	_SubWord
   06D3 F1            [10] 1337 	pop	af
                     06D4  1338 	C$aes256.c$90$3_1$81	= .
                           1339 	.globl	C$aes256.c$90$3_1$81
                           1340 ;/work/source_code/testingfiles/aes256.c:90: temp[0] ^= RCON[rcon_idx++];
   06D4 DD 6E F4      [19] 1341 	ld	l, -12 (ix)
   06D7 DD 66 F5      [19] 1342 	ld	h, -11 (ix)
   06DA 4E            [ 7] 1343 	ld	c, (hl)
   06DB 3Er2C         [ 7] 1344 	ld	a, #<(_RCON)
   06DD DD 86 FA      [19] 1345 	add	a, -6 (ix)
   06E0 5F            [ 4] 1346 	ld	e, a
   06E1 3Es01         [ 7] 1347 	ld	a, #>(_RCON)
   06E3 DD 8E FB      [19] 1348 	adc	a, -5 (ix)
   06E6 57            [ 4] 1349 	ld	d, a
   06E7 DD 34 FA      [23] 1350 	inc	-6 (ix)
   06EA C2rF0r06      [10] 1351 	jp	NZ, 00162$
   06ED DD 34 FB      [23] 1352 	inc	-5 (ix)
   06F0                    1353 00162$:
   06F0 1A            [ 7] 1354 	ld	a, (de)
   06F1 A9            [ 4] 1355 	xor	a, c
   06F2 DD 6E F4      [19] 1356 	ld	l, -12 (ix)
   06F5 DD 66 F5      [19] 1357 	ld	h, -11 (ix)
   06F8 77            [ 7] 1358 	ld	(hl), a
   06F9 C3r18r07      [10] 1359 	jp	00127$
                     06FC  1360 	C$aes256.c$91$2_1$79	= .
                           1361 	.globl	C$aes256.c$91$2_1$79
                           1362 ;/work/source_code/testingfiles/aes256.c:91: } else if (Nk > 6 && (bytes % (Nk * 4) == 16)) {
   06FC                    1363 00104$:
   06FC DD 7E FE      [19] 1364 	ld	a, -2 (ix)
   06FF D6 10         [ 7] 1365 	sub	a, #0x10
   0701 DD B6 FF      [19] 1366 	or	a, -1 (ix)
   0704 C2r0Ar07      [10] 1367 	jp	NZ,00163$
   0707 C3r0Dr07      [10] 1368 	jp	00164$
   070A                    1369 00163$:
   070A C3r18r07      [10] 1370 	jp	00127$
   070D                    1371 00164$:
                     070D  1372 	C$aes256.c$93$3_1$82	= .
                           1373 	.globl	C$aes256.c$93$3_1$82
                           1374 ;/work/source_code/testingfiles/aes256.c:93: SubWord(temp);
   070D DD 4E F6      [19] 1375 	ld	c, -10 (ix)
   0710 DD 46 F7      [19] 1376 	ld	b, -9 (ix)
   0713 C5            [11] 1377 	push	bc
   0714 CDrAEr05      [17] 1378 	call	_SubWord
   0717 F1            [10] 1379 	pop	af
                     0718  1380 	C$aes256.c$96$1_1$77	= .
                           1381 	.globl	C$aes256.c$96$1_1$77
                           1382 ;/work/source_code/testingfiles/aes256.c:96: for (int i = 0; i < 4; ++i) {
   0718                    1383 00127$:
   0718 DD 7E F2      [19] 1384 	ld	a, -14 (ix)
   071B DD 77 FC      [19] 1385 	ld	-4 (ix), a
   071E DD 7E F3      [19] 1386 	ld	a, -13 (ix)
   0721 DD 77 FD      [19] 1387 	ld	-3 (ix), a
   0724 AF            [ 4] 1388 	xor	a, a
   0725 DD 77 FE      [19] 1389 	ld	-2 (ix), a
   0728 DD 77 FF      [19] 1390 	ld	-1 (ix), a
   072B                    1391 00116$:
   072B DD 7E FE      [19] 1392 	ld	a, -2 (ix)
   072E D6 04         [ 7] 1393 	sub	a, #0x04
   0730 DD 7E FF      [19] 1394 	ld	a, -1 (ix)
   0733 17            [ 4] 1395 	rla
   0734 3F            [ 4] 1396 	ccf
   0735 1F            [ 4] 1397 	rra
   0736 DE 80         [ 7] 1398 	sbc	a, #0x80
   0738 D2r45r06      [10] 1399 	jp	NC, 00109$
                     073B  1400 	C$aes256.c$97$4_1$84	= .
                           1401 	.globl	C$aes256.c$97$4_1$84
                           1402 ;/work/source_code/testingfiles/aes256.c:97: roundKeys[bytes] = roundKeys[bytes - (Nk * 4)] ^ temp[i];
   073B DD 7E 06      [19] 1403 	ld	a, 6 (ix)
   073E DD 86 FC      [19] 1404 	add	a, -4 (ix)
   0741 4F            [ 4] 1405 	ld	c, a
   0742 DD 7E 07      [19] 1406 	ld	a, 7 (ix)
   0745 DD 8E FD      [19] 1407 	adc	a, -3 (ix)
   0748 47            [ 4] 1408 	ld	b, a
   0749 DD 7E FC      [19] 1409 	ld	a, -4 (ix)
   074C C6 E0         [ 7] 1410 	add	a, #0xe0
   074E 5F            [ 4] 1411 	ld	e, a
   074F DD 7E FD      [19] 1412 	ld	a, -3 (ix)
   0752 CE FF         [ 7] 1413 	adc	a, #0xff
   0754 57            [ 4] 1414 	ld	d, a
   0755 DD 6E 06      [19] 1415 	ld	l, 6 (ix)
   0758 DD 66 07      [19] 1416 	ld	h, 7 (ix)
   075B 19            [11] 1417 	add	hl, de
   075C 5E            [ 7] 1418 	ld	e, (hl)
   075D DD 7E F8      [19] 1419 	ld	a, -8 (ix)
   0760 DD 86 FE      [19] 1420 	add	a, -2 (ix)
   0763 6F            [ 4] 1421 	ld	l, a
   0764 DD 7E F9      [19] 1422 	ld	a, -7 (ix)
   0767 DD 8E FF      [19] 1423 	adc	a, -1 (ix)
   076A 67            [ 4] 1424 	ld	h, a
   076B 7E            [ 7] 1425 	ld	a, (hl)
   076C AB            [ 4] 1426 	xor	a, e
   076D 02            [ 7] 1427 	ld	(bc), a
                     076E  1428 	C$aes256.c$98$4_1$84	= .
                           1429 	.globl	C$aes256.c$98$4_1$84
                           1430 ;/work/source_code/testingfiles/aes256.c:98: ++bytes;
   076E DD 34 FC      [23] 1431 	inc	-4 (ix)
   0771 C2r77r07      [10] 1432 	jp	NZ, 00165$
   0774 DD 34 FD      [23] 1433 	inc	-3 (ix)
   0777                    1434 00165$:
   0777 DD 7E FC      [19] 1435 	ld	a, -4 (ix)
   077A DD 77 F2      [19] 1436 	ld	-14 (ix), a
   077D DD 7E FD      [19] 1437 	ld	a, -3 (ix)
   0780 DD 77 F3      [19] 1438 	ld	-13 (ix), a
                     0783  1439 	C$aes256.c$96$3_1$83	= .
                           1440 	.globl	C$aes256.c$96$3_1$83
                           1441 ;/work/source_code/testingfiles/aes256.c:96: for (int i = 0; i < 4; ++i) {
   0783 DD 34 FE      [23] 1442 	inc	-2 (ix)
   0786 C2r8Cr07      [10] 1443 	jp	NZ, 00166$
   0789 DD 34 FF      [23] 1444 	inc	-1 (ix)
   078C                    1445 00166$:
   078C C3r2Br07      [10] 1446 	jp	00116$
   078F                    1447 00118$:
                     078F  1448 	C$aes256.c$101$1_1$77	= .
                           1449 	.globl	C$aes256.c$101$1_1$77
                           1450 ;/work/source_code/testingfiles/aes256.c:101: }
   078F DD F9         [10] 1451 	ld	sp, ix
   0791 DD E1         [14] 1452 	pop	ix
                     0793  1453 	C$aes256.c$101$1_1$77	= .
                           1454 	.globl	C$aes256.c$101$1_1$77
                     0793  1455 	XFaes256$KeyExpansion$0$0	= .
                           1456 	.globl	XFaes256$KeyExpansion$0$0
   0793 C9            [10] 1457 	ret
                     0794  1458 	G$AES256_Encrypt$0$0	= .
                           1459 	.globl	G$AES256_Encrypt$0$0
                     0794  1460 	C$aes256.c$103$1_1$86	= .
                           1461 	.globl	C$aes256.c$103$1_1$86
                           1462 ;/work/source_code/testingfiles/aes256.c:103: void AES256_Encrypt(const uint8_t in[16], uint8_t out[16], const uint8_t key[32]) {
                           1463 ;	---------------------------------
                           1464 ; Function AES256_Encrypt
                           1465 ; ---------------------------------
   0794                    1466 _AES256_Encrypt::
   0794 DD E5         [15] 1467 	push	ix
   0796 DD 21 00 00   [14] 1468 	ld	ix,#0
   079A DD 39         [15] 1469 	add	ix,sp
   079C 21 F4 FE      [10] 1470 	ld	hl, #-268
   079F 39            [11] 1471 	add	hl, sp
   07A0 F9            [ 6] 1472 	ld	sp, hl
                     07A1  1473 	C$aes256.c$107$1_0$86	= .
                           1474 	.globl	C$aes256.c$107$1_0$86
                           1475 ;/work/source_code/testingfiles/aes256.c:107: memcpy(state, in, 16);
   07A1 21 00 00      [10] 1476 	ld	hl, #0
   07A4 39            [11] 1477 	add	hl, sp
   07A5 4D            [ 4] 1478 	ld	c, l
   07A6 44            [ 4] 1479 	ld	b, h
   07A7 59            [ 4] 1480 	ld	e, c
   07A8 50            [ 4] 1481 	ld	d, b
   07A9 DD 6E 04      [19] 1482 	ld	l, 4 (ix)
   07AC DD 66 05      [19] 1483 	ld	h, 5 (ix)
   07AF C5            [11] 1484 	push	bc
   07B0 01 10 00      [10] 1485 	ld	bc, #0x0010
   07B3 ED B0         [21] 1486 	ldir
   07B5 C1            [10] 1487 	pop	bc
                     07B6  1488 	C$aes256.c$108$1_0$86	= .
                           1489 	.globl	C$aes256.c$108$1_0$86
                           1490 ;/work/source_code/testingfiles/aes256.c:108: KeyExpansion(key, roundKeys);
   07B6 21 10 00      [10] 1491 	ld	hl, #16
   07B9 39            [11] 1492 	add	hl, sp
   07BA DD 75 F4      [19] 1493 	ld	-12 (ix), l
   07BD DD 74 F5      [19] 1494 	ld	-11 (ix), h
   07C0 DD 5E F4      [19] 1495 	ld	e, -12 (ix)
   07C3 DD 56 F5      [19] 1496 	ld	d, -11 (ix)
   07C6 C5            [11] 1497 	push	bc
   07C7 D5            [11] 1498 	push	de
   07C8 DD 6E 08      [19] 1499 	ld	l, 8 (ix)
   07CB DD 66 09      [19] 1500 	ld	h, 9 (ix)
   07CE E5            [11] 1501 	push	hl
   07CF CDrF5r05      [17] 1502 	call	_KeyExpansion
   07D2 F1            [10] 1503 	pop	af
   07D3 F1            [10] 1504 	pop	af
   07D4 C1            [10] 1505 	pop	bc
                     07D5  1506 	C$aes256.c$110$1_0$86	= .
                           1507 	.globl	C$aes256.c$110$1_0$86
                           1508 ;/work/source_code/testingfiles/aes256.c:110: AddRoundKey(state, roundKeys + 0);
   07D5 DD 6E F4      [19] 1509 	ld	l, -12 (ix)
   07D8 DD 66 F5      [19] 1510 	ld	h, -11 (ix)
   07DB 59            [ 4] 1511 	ld	e, c
   07DC 50            [ 4] 1512 	ld	d, b
   07DD C5            [11] 1513 	push	bc
   07DE E5            [11] 1514 	push	hl
   07DF D5            [11] 1515 	push	de
   07E0 CDr35r05      [17] 1516 	call	_AddRoundKey
   07E3 F1            [10] 1517 	pop	af
   07E4 F1            [10] 1518 	pop	af
   07E5 C1            [10] 1519 	pop	bc
                     07E6  1520 	C$aes256.c$112$3_0$88	= .
                           1521 	.globl	C$aes256.c$112$3_0$88
                           1522 ;/work/source_code/testingfiles/aes256.c:112: for (int round = 1; round < Nr; ++round) {
   07E6 DD 71 F6      [19] 1523 	ld	-10 (ix), c
   07E9 DD 70 F7      [19] 1524 	ld	-9 (ix), b
   07EC DD 71 F8      [19] 1525 	ld	-8 (ix), c
   07EF DD 70 F9      [19] 1526 	ld	-7 (ix), b
   07F2 DD 71 FA      [19] 1527 	ld	-6 (ix), c
   07F5 DD 70 FB      [19] 1528 	ld	-5 (ix), b
   07F8 DD 71 FC      [19] 1529 	ld	-4 (ix), c
   07FB DD 70 FD      [19] 1530 	ld	-3 (ix), b
   07FE DD 36 FE 01   [19] 1531 	ld	-2 (ix), #0x01
   0802 AF            [ 4] 1532 	xor	a, a
   0803 DD 77 FF      [19] 1533 	ld	-1 (ix), a
   0806                    1534 00103$:
   0806 DD 7E FE      [19] 1535 	ld	a, -2 (ix)
   0809 D6 0E         [ 7] 1536 	sub	a, #0x0e
   080B DD 7E FF      [19] 1537 	ld	a, -1 (ix)
   080E 17            [ 4] 1538 	rla
   080F 3F            [ 4] 1539 	ccf
   0810 1F            [ 4] 1540 	rra
   0811 DE 80         [ 7] 1541 	sbc	a, #0x80
   0813 D2r78r08      [10] 1542 	jp	NC, 00101$
                     0816  1543 	C$aes256.c$113$3_0$88	= .
                           1544 	.globl	C$aes256.c$113$3_0$88
                           1545 ;/work/source_code/testingfiles/aes256.c:113: SubBytes(state);
   0816 DD 5E F6      [19] 1546 	ld	e, -10 (ix)
   0819 DD 56 F7      [19] 1547 	ld	d, -9 (ix)
   081C C5            [11] 1548 	push	bc
   081D D5            [11] 1549 	push	de
   081E CDr3Br01      [17] 1550 	call	_SubBytes
   0821 F1            [10] 1551 	pop	af
   0822 C1            [10] 1552 	pop	bc
                     0823  1553 	C$aes256.c$114$3_0$88	= .
                           1554 	.globl	C$aes256.c$114$3_0$88
                           1555 ;/work/source_code/testingfiles/aes256.c:114: ShiftRows(state);
   0823 DD 5E F8      [19] 1556 	ld	e, -8 (ix)
   0826 DD 56 F9      [19] 1557 	ld	d, -7 (ix)
   0829 C5            [11] 1558 	push	bc
   082A D5            [11] 1559 	push	de
   082B CDr6Er01      [17] 1560 	call	_ShiftRows
   082E F1            [10] 1561 	pop	af
   082F C1            [10] 1562 	pop	bc
                     0830  1563 	C$aes256.c$115$3_0$88	= .
                           1564 	.globl	C$aes256.c$115$3_0$88
                           1565 ;/work/source_code/testingfiles/aes256.c:115: MixColumns(state);
   0830 DD 5E FA      [19] 1566 	ld	e, -6 (ix)
   0833 DD 56 FB      [19] 1567 	ld	d, -5 (ix)
   0836 C5            [11] 1568 	push	bc
   0837 D5            [11] 1569 	push	de
   0838 CDr82r02      [17] 1570 	call	_MixColumns
   083B F1            [10] 1571 	pop	af
   083C C1            [10] 1572 	pop	bc
                     083D  1573 	C$aes256.c$116$3_0$88	= .
                           1574 	.globl	C$aes256.c$116$3_0$88
                           1575 ;/work/source_code/testingfiles/aes256.c:116: AddRoundKey(state, roundKeys + (16 * round));
   083D DD 5E FE      [19] 1576 	ld	e, -2 (ix)
   0840 DD 56 FF      [19] 1577 	ld	d, -1 (ix)
   0843 CB 23         [ 8] 1578 	sla	e
   0845 CB 12         [ 8] 1579 	rl	d
   0847 CB 23         [ 8] 1580 	sla	e
   0849 CB 12         [ 8] 1581 	rl	d
   084B CB 23         [ 8] 1582 	sla	e
   084D CB 12         [ 8] 1583 	rl	d
   084F CB 23         [ 8] 1584 	sla	e
   0851 CB 12         [ 8] 1585 	rl	d
   0853 7B            [ 4] 1586 	ld	a, e
   0854 DD 86 F4      [19] 1587 	add	a, -12 (ix)
   0857 5F            [ 4] 1588 	ld	e, a
   0858 7A            [ 4] 1589 	ld	a, d
   0859 DD 8E F5      [19] 1590 	adc	a, -11 (ix)
   085C 57            [ 4] 1591 	ld	d, a
   085D DD 6E FC      [19] 1592 	ld	l, -4 (ix)
   0860 DD 66 FD      [19] 1593 	ld	h, -3 (ix)
   0863 C5            [11] 1594 	push	bc
   0864 D5            [11] 1595 	push	de
   0865 E5            [11] 1596 	push	hl
   0866 CDr35r05      [17] 1597 	call	_AddRoundKey
   0869 F1            [10] 1598 	pop	af
   086A F1            [10] 1599 	pop	af
   086B C1            [10] 1600 	pop	bc
                     086C  1601 	C$aes256.c$112$2_0$87	= .
                           1602 	.globl	C$aes256.c$112$2_0$87
                           1603 ;/work/source_code/testingfiles/aes256.c:112: for (int round = 1; round < Nr; ++round) {
   086C DD 34 FE      [23] 1604 	inc	-2 (ix)
   086F C2r75r08      [10] 1605 	jp	NZ, 00120$
   0872 DD 34 FF      [23] 1606 	inc	-1 (ix)
   0875                    1607 00120$:
   0875 C3r06r08      [10] 1608 	jp	00103$
   0878                    1609 00101$:
                     0878  1610 	C$aes256.c$119$1_0$86	= .
                           1611 	.globl	C$aes256.c$119$1_0$86
                           1612 ;/work/source_code/testingfiles/aes256.c:119: SubBytes(state);
   0878 59            [ 4] 1613 	ld	e, c
   0879 50            [ 4] 1614 	ld	d, b
   087A C5            [11] 1615 	push	bc
   087B D5            [11] 1616 	push	de
   087C CDr3Br01      [17] 1617 	call	_SubBytes
   087F F1            [10] 1618 	pop	af
   0880 C1            [10] 1619 	pop	bc
                     0881  1620 	C$aes256.c$120$1_0$86	= .
                           1621 	.globl	C$aes256.c$120$1_0$86
                           1622 ;/work/source_code/testingfiles/aes256.c:120: ShiftRows(state);
   0881 59            [ 4] 1623 	ld	e, c
   0882 50            [ 4] 1624 	ld	d, b
   0883 C5            [11] 1625 	push	bc
   0884 D5            [11] 1626 	push	de
   0885 CDr6Er01      [17] 1627 	call	_ShiftRows
   0888 F1            [10] 1628 	pop	af
   0889 C1            [10] 1629 	pop	bc
                     088A  1630 	C$aes256.c$121$1_0$86	= .
                           1631 	.globl	C$aes256.c$121$1_0$86
                           1632 ;/work/source_code/testingfiles/aes256.c:121: AddRoundKey(state, roundKeys + (16 * Nr));
   088A DD 7E F4      [19] 1633 	ld	a, -12 (ix)
   088D C6 E0         [ 7] 1634 	add	a, #0xe0
   088F 5F            [ 4] 1635 	ld	e, a
   0890 DD 7E F5      [19] 1636 	ld	a, -11 (ix)
   0893 CE 00         [ 7] 1637 	adc	a, #0x00
   0895 57            [ 4] 1638 	ld	d, a
   0896 69            [ 4] 1639 	ld	l, c
   0897 60            [ 4] 1640 	ld	h, b
   0898 C5            [11] 1641 	push	bc
   0899 D5            [11] 1642 	push	de
   089A E5            [11] 1643 	push	hl
   089B CDr35r05      [17] 1644 	call	_AddRoundKey
   089E F1            [10] 1645 	pop	af
   089F F1            [10] 1646 	pop	af
   08A0 C1            [10] 1647 	pop	bc
                     08A1  1648 	C$aes256.c$123$1_0$86	= .
                           1649 	.globl	C$aes256.c$123$1_0$86
                           1650 ;/work/source_code/testingfiles/aes256.c:123: memcpy(out, state, 16);
   08A1 DD 5E 06      [19] 1651 	ld	e, 6 (ix)
   08A4 DD 56 07      [19] 1652 	ld	d, 7 (ix)
   08A7 69            [ 4] 1653 	ld	l, c
   08A8 60            [ 4] 1654 	ld	h, b
   08A9 01 10 00      [10] 1655 	ld	bc, #0x0010
   08AC ED B0         [21] 1656 	ldir
   08AE                    1657 00105$:
                     08AE  1658 	C$aes256.c$124$1_0$86	= .
                           1659 	.globl	C$aes256.c$124$1_0$86
                           1660 ;/work/source_code/testingfiles/aes256.c:124: }
   08AE DD F9         [10] 1661 	ld	sp, ix
   08B0 DD E1         [14] 1662 	pop	ix
                     08B2  1663 	C$aes256.c$124$1_0$86	= .
                           1664 	.globl	C$aes256.c$124$1_0$86
                     08B2  1665 	XG$AES256_Encrypt$0$0	= .
                           1666 	.globl	XG$AES256_Encrypt$0$0
   08B2 C9            [10] 1667 	ret
                     08B3  1668 	G$main$0$0	= .
                           1669 	.globl	G$main$0$0
                     08B3  1670 	C$aes256.c$126$1_0$90	= .
                           1671 	.globl	C$aes256.c$126$1_0$90
                           1672 ;/work/source_code/testingfiles/aes256.c:126: int main(void) {
                           1673 ;	---------------------------------
                           1674 ; Function main
                           1675 ; ---------------------------------
   08B3                    1676 _main::
   08B3 DD E5         [15] 1677 	push	ix
   08B5 DD 21 00 00   [14] 1678 	ld	ix,#0
   08B9 DD 39         [15] 1679 	add	ix,sp
   08BB 21 BE FF      [10] 1680 	ld	hl, #-66
   08BE 39            [11] 1681 	add	hl, sp
   08BF F9            [ 6] 1682 	ld	sp, hl
                     08C0  1683 	C$aes256.c$128$2_0$90	= .
                           1684 	.globl	C$aes256.c$128$2_0$90
                           1685 ;/work/source_code/testingfiles/aes256.c:128: uint8_t key[32] = {
   08C0 21 00 00      [10] 1686 	ld	hl, #0
   08C3 39            [11] 1687 	add	hl, sp
   08C4 EB            [ 4] 1688 	ex	de, hl
   08C5 3E 60         [ 7] 1689 	ld	a, #0x60
   08C7 12            [ 7] 1690 	ld	(de), a
   08C8 6B            [ 4] 1691 	ld	l, e
   08C9 62            [ 4] 1692 	ld	h, d
   08CA 23            [ 6] 1693 	inc	hl
   08CB 36 3D         [10] 1694 	ld	(hl), #0x3d
   08CD 6B            [ 4] 1695 	ld	l, e
   08CE 62            [ 4] 1696 	ld	h, d
   08CF 23            [ 6] 1697 	inc	hl
   08D0 23            [ 6] 1698 	inc	hl
   08D1 36 EB         [10] 1699 	ld	(hl), #0xeb
   08D3 6B            [ 4] 1700 	ld	l, e
   08D4 62            [ 4] 1701 	ld	h, d
   08D5 23            [ 6] 1702 	inc	hl
   08D6 23            [ 6] 1703 	inc	hl
   08D7 23            [ 6] 1704 	inc	hl
   08D8 36 10         [10] 1705 	ld	(hl), #0x10
   08DA 21 04 00      [10] 1706 	ld	hl, #0x0004
   08DD 19            [11] 1707 	add	hl, de
   08DE 36 15         [10] 1708 	ld	(hl), #0x15
   08E0 21 05 00      [10] 1709 	ld	hl, #0x0005
   08E3 19            [11] 1710 	add	hl, de
   08E4 36 CA         [10] 1711 	ld	(hl), #0xca
   08E6 21 06 00      [10] 1712 	ld	hl, #0x0006
   08E9 19            [11] 1713 	add	hl, de
   08EA 36 71         [10] 1714 	ld	(hl), #0x71
   08EC 21 07 00      [10] 1715 	ld	hl, #0x0007
   08EF 19            [11] 1716 	add	hl, de
   08F0 36 BE         [10] 1717 	ld	(hl), #0xbe
   08F2 21 08 00      [10] 1718 	ld	hl, #0x0008
   08F5 19            [11] 1719 	add	hl, de
   08F6 36 2B         [10] 1720 	ld	(hl), #0x2b
   08F8 21 09 00      [10] 1721 	ld	hl, #0x0009
   08FB 19            [11] 1722 	add	hl, de
   08FC 36 73         [10] 1723 	ld	(hl), #0x73
   08FE 21 0A 00      [10] 1724 	ld	hl, #0x000a
   0901 19            [11] 1725 	add	hl, de
   0902 36 AE         [10] 1726 	ld	(hl), #0xae
   0904 21 0B 00      [10] 1727 	ld	hl, #0x000b
   0907 19            [11] 1728 	add	hl, de
   0908 36 F0         [10] 1729 	ld	(hl), #0xf0
   090A 21 0C 00      [10] 1730 	ld	hl, #0x000c
   090D 19            [11] 1731 	add	hl, de
   090E 36 85         [10] 1732 	ld	(hl), #0x85
   0910 21 0D 00      [10] 1733 	ld	hl, #0x000d
   0913 19            [11] 1734 	add	hl, de
   0914 36 7D         [10] 1735 	ld	(hl), #0x7d
   0916 21 0E 00      [10] 1736 	ld	hl, #0x000e
   0919 19            [11] 1737 	add	hl, de
   091A 36 77         [10] 1738 	ld	(hl), #0x77
   091C 21 0F 00      [10] 1739 	ld	hl, #0x000f
   091F 19            [11] 1740 	add	hl, de
   0920 36 81         [10] 1741 	ld	(hl), #0x81
   0922 21 10 00      [10] 1742 	ld	hl, #0x0010
   0925 19            [11] 1743 	add	hl, de
   0926 36 1F         [10] 1744 	ld	(hl), #0x1f
   0928 21 11 00      [10] 1745 	ld	hl, #0x0011
   092B 19            [11] 1746 	add	hl, de
   092C 36 35         [10] 1747 	ld	(hl), #0x35
   092E 21 12 00      [10] 1748 	ld	hl, #0x0012
   0931 19            [11] 1749 	add	hl, de
   0932 36 2C         [10] 1750 	ld	(hl), #0x2c
   0934 21 13 00      [10] 1751 	ld	hl, #0x0013
   0937 19            [11] 1752 	add	hl, de
   0938 36 07         [10] 1753 	ld	(hl), #0x07
   093A 21 14 00      [10] 1754 	ld	hl, #0x0014
   093D 19            [11] 1755 	add	hl, de
   093E 36 3B         [10] 1756 	ld	(hl), #0x3b
   0940 21 15 00      [10] 1757 	ld	hl, #0x0015
   0943 19            [11] 1758 	add	hl, de
   0944 36 61         [10] 1759 	ld	(hl), #0x61
   0946 21 16 00      [10] 1760 	ld	hl, #0x0016
   0949 19            [11] 1761 	add	hl, de
   094A 36 08         [10] 1762 	ld	(hl), #0x08
   094C 21 17 00      [10] 1763 	ld	hl, #0x0017
   094F 19            [11] 1764 	add	hl, de
   0950 36 D7         [10] 1765 	ld	(hl), #0xd7
   0952 21 18 00      [10] 1766 	ld	hl, #0x0018
   0955 19            [11] 1767 	add	hl, de
   0956 36 2D         [10] 1768 	ld	(hl), #0x2d
   0958 21 19 00      [10] 1769 	ld	hl, #0x0019
   095B 19            [11] 1770 	add	hl, de
   095C 36 98         [10] 1771 	ld	(hl), #0x98
   095E 21 1A 00      [10] 1772 	ld	hl, #0x001a
   0961 19            [11] 1773 	add	hl, de
   0962 36 10         [10] 1774 	ld	(hl), #0x10
   0964 21 1B 00      [10] 1775 	ld	hl, #0x001b
   0967 19            [11] 1776 	add	hl, de
   0968 36 A3         [10] 1777 	ld	(hl), #0xa3
   096A 21 1C 00      [10] 1778 	ld	hl, #0x001c
   096D 19            [11] 1779 	add	hl, de
   096E 36 09         [10] 1780 	ld	(hl), #0x09
   0970 21 1D 00      [10] 1781 	ld	hl, #0x001d
   0973 19            [11] 1782 	add	hl, de
   0974 36 14         [10] 1783 	ld	(hl), #0x14
   0976 21 1E 00      [10] 1784 	ld	hl, #0x001e
   0979 19            [11] 1785 	add	hl, de
   097A 36 DF         [10] 1786 	ld	(hl), #0xdf
   097C 21 1F 00      [10] 1787 	ld	hl, #0x001f
   097F 19            [11] 1788 	add	hl, de
   0980 36 F4         [10] 1789 	ld	(hl), #0xf4
                     0982  1790 	C$aes256.c$135$2_0$90	= .
                           1791 	.globl	C$aes256.c$135$2_0$90
                           1792 ;/work/source_code/testingfiles/aes256.c:135: uint8_t plaintext[16] = {
   0982 21 20 00      [10] 1793 	ld	hl, #32
   0985 39            [11] 1794 	add	hl, sp
   0986 4D            [ 4] 1795 	ld	c, l
   0987 44            [ 4] 1796 	ld	b, h
   0988 3E 6B         [ 7] 1797 	ld	a, #0x6b
   098A 02            [ 7] 1798 	ld	(bc), a
   098B 69            [ 4] 1799 	ld	l, c
   098C 60            [ 4] 1800 	ld	h, b
   098D 23            [ 6] 1801 	inc	hl
   098E 36 C1         [10] 1802 	ld	(hl), #0xc1
   0990 69            [ 4] 1803 	ld	l, c
   0991 60            [ 4] 1804 	ld	h, b
   0992 23            [ 6] 1805 	inc	hl
   0993 23            [ 6] 1806 	inc	hl
   0994 36 BE         [10] 1807 	ld	(hl), #0xbe
   0996 69            [ 4] 1808 	ld	l, c
   0997 60            [ 4] 1809 	ld	h, b
   0998 23            [ 6] 1810 	inc	hl
   0999 23            [ 6] 1811 	inc	hl
   099A 23            [ 6] 1812 	inc	hl
   099B 36 E2         [10] 1813 	ld	(hl), #0xe2
   099D 21 04 00      [10] 1814 	ld	hl, #0x0004
   09A0 09            [11] 1815 	add	hl, bc
   09A1 36 2E         [10] 1816 	ld	(hl), #0x2e
   09A3 21 05 00      [10] 1817 	ld	hl, #0x0005
   09A6 09            [11] 1818 	add	hl, bc
   09A7 36 40         [10] 1819 	ld	(hl), #0x40
   09A9 21 06 00      [10] 1820 	ld	hl, #0x0006
   09AC 09            [11] 1821 	add	hl, bc
   09AD 36 9F         [10] 1822 	ld	(hl), #0x9f
   09AF 21 07 00      [10] 1823 	ld	hl, #0x0007
   09B2 09            [11] 1824 	add	hl, bc
   09B3 36 96         [10] 1825 	ld	(hl), #0x96
   09B5 21 08 00      [10] 1826 	ld	hl, #0x0008
   09B8 09            [11] 1827 	add	hl, bc
   09B9 36 E9         [10] 1828 	ld	(hl), #0xe9
   09BB 21 09 00      [10] 1829 	ld	hl, #0x0009
   09BE 09            [11] 1830 	add	hl, bc
   09BF 36 3D         [10] 1831 	ld	(hl), #0x3d
   09C1 21 0A 00      [10] 1832 	ld	hl, #0x000a
   09C4 09            [11] 1833 	add	hl, bc
   09C5 36 7E         [10] 1834 	ld	(hl), #0x7e
   09C7 21 0B 00      [10] 1835 	ld	hl, #0x000b
   09CA 09            [11] 1836 	add	hl, bc
   09CB 36 11         [10] 1837 	ld	(hl), #0x11
   09CD 21 0C 00      [10] 1838 	ld	hl, #0x000c
   09D0 09            [11] 1839 	add	hl, bc
   09D1 36 73         [10] 1840 	ld	(hl), #0x73
   09D3 21 0D 00      [10] 1841 	ld	hl, #0x000d
   09D6 09            [11] 1842 	add	hl, bc
   09D7 36 93         [10] 1843 	ld	(hl), #0x93
   09D9 21 0E 00      [10] 1844 	ld	hl, #0x000e
   09DC 09            [11] 1845 	add	hl, bc
   09DD 36 17         [10] 1846 	ld	(hl), #0x17
   09DF 21 0F 00      [10] 1847 	ld	hl, #0x000f
   09E2 09            [11] 1848 	add	hl, bc
   09E3 36 2A         [10] 1849 	ld	(hl), #0x2a
                     09E5  1850 	C$aes256.c$142$1_0$90	= .
                           1851 	.globl	C$aes256.c$142$1_0$90
                           1852 ;/work/source_code/testingfiles/aes256.c:142: AES256_Encrypt(plaintext, ciphertext, key);
   09E5 21 30 00      [10] 1853 	ld	hl, #48
   09E8 39            [11] 1854 	add	hl, sp
   09E9 DD 75 FE      [19] 1855 	ld	-2 (ix), l
   09EC DD 74 FF      [19] 1856 	ld	-1 (ix), h
   09EF DD 6E FE      [19] 1857 	ld	l, -2 (ix)
   09F2 DD 66 FF      [19] 1858 	ld	h, -1 (ix)
   09F5 D5            [11] 1859 	push	de
   09F6 E5            [11] 1860 	push	hl
   09F7 C5            [11] 1861 	push	bc
   09F8 CDr94r07      [17] 1862 	call	_AES256_Encrypt
   09FB 21 06 00      [10] 1863 	ld	hl, #6
   09FE 39            [11] 1864 	add	hl, sp
   09FF F9            [ 6] 1865 	ld	sp, hl
                     0A00  1866 	C$aes256.c$144$1_0$90	= .
                           1867 	.globl	C$aes256.c$144$1_0$90
                           1868 ;/work/source_code/testingfiles/aes256.c:144: printf("AES-256 Encryption (ECB) - test vector result:\nCiphertext: ");
   0A00 21r41r0A      [10] 1869 	ld	hl, #___str_0
   0A03 E5            [11] 1870 	push	hl
   0A04 CDr00r00      [17] 1871 	call	_printf
   0A07 F1            [10] 1872 	pop	af
                     0A08  1873 	C$aes256.c$145$2_0$91	= .
                           1874 	.globl	C$aes256.c$145$2_0$91
                           1875 ;/work/source_code/testingfiles/aes256.c:145: for (int i = 0; i < 16; ++i) printf("%02x ", ciphertext[i]);
   0A08 01 00 00      [10] 1876 	ld	bc, #0x0000
   0A0B                    1877 00103$:
   0A0B 79            [ 4] 1878 	ld	a, c
   0A0C D6 10         [ 7] 1879 	sub	a, #0x10
   0A0E 78            [ 4] 1880 	ld	a, b
   0A0F 17            [ 4] 1881 	rla
   0A10 3F            [ 4] 1882 	ccf
   0A11 1F            [ 4] 1883 	rra
   0A12 DE 80         [ 7] 1884 	sbc	a, #0x80
   0A14 D2r31r0A      [10] 1885 	jp	NC, 00101$
   0A17 DD 6E FE      [19] 1886 	ld	l, -2 (ix)
   0A1A DD 66 FF      [19] 1887 	ld	h, -1 (ix)
   0A1D 09            [11] 1888 	add	hl, bc
   0A1E 5E            [ 7] 1889 	ld	e, (hl)
   0A1F 16 00         [ 7] 1890 	ld	d, #0x00
   0A21 C5            [11] 1891 	push	bc
   0A22 D5            [11] 1892 	push	de
   0A23 21r7Dr0A      [10] 1893 	ld	hl, #___str_1
   0A26 E5            [11] 1894 	push	hl
   0A27 CDr00r00      [17] 1895 	call	_printf
   0A2A F1            [10] 1896 	pop	af
   0A2B F1            [10] 1897 	pop	af
   0A2C C1            [10] 1898 	pop	bc
   0A2D 03            [ 6] 1899 	inc	bc
   0A2E C3r0Br0A      [10] 1900 	jp	00103$
   0A31                    1901 00101$:
                     0A31  1902 	C$aes256.c$146$1_0$90	= .
                           1903 	.globl	C$aes256.c$146$1_0$90
                           1904 ;/work/source_code/testingfiles/aes256.c:146: printf("\n");
   0A31 21r83r0A      [10] 1905 	ld	hl, #___str_3
   0A34 E5            [11] 1906 	push	hl
   0A35 CDr00r00      [17] 1907 	call	_puts
   0A38 F1            [10] 1908 	pop	af
                     0A39  1909 	C$aes256.c$149$1_0$90	= .
                           1910 	.globl	C$aes256.c$149$1_0$90
                           1911 ;/work/source_code/testingfiles/aes256.c:149: return 0;
   0A39 21 00 00      [10] 1912 	ld	hl, #0x0000
   0A3C                    1913 00105$:
                     0A3C  1914 	C$aes256.c$150$1_0$90	= .
                           1915 	.globl	C$aes256.c$150$1_0$90
                           1916 ;/work/source_code/testingfiles/aes256.c:150: }
   0A3C DD F9         [10] 1917 	ld	sp, ix
   0A3E DD E1         [14] 1918 	pop	ix
                     0A40  1919 	C$aes256.c$150$1_0$90	= .
                           1920 	.globl	C$aes256.c$150$1_0$90
                     0A40  1921 	XG$main$0$0	= .
                           1922 	.globl	XG$main$0$0
   0A40 C9            [10] 1923 	ret
                     0A41  1924 Faes256$__str_0$0_0$0 == .
   0A41                    1925 ___str_0:
   0A41 41 45 53 2D 32 35  1926 	.ascii "AES-256 Encryption (ECB) - test vector result:"
        36 20 45 6E 63 72
        79 70 74 69 6F 6E
        20 28 45 43 42 29
        20 2D 20 74 65 73
        74 20 76 65 63 74
        6F 72 20 72 65 73
        75 6C 74 3A
   0A6F 0A                 1927 	.db 0x0a
   0A70 43 69 70 68 65 72  1928 	.ascii "Ciphertext: "
        74 65 78 74 3A 20
   0A7C 00                 1929 	.db 0x00
                     0A7D  1930 Faes256$__str_1$0_0$0 == .
   0A7D                    1931 ___str_1:
   0A7D 25 30 32 78 20     1932 	.ascii "%02x "
   0A82 00                 1933 	.db 0x00
                     0A83  1934 Faes256$__str_3$0_0$0 == .
   0A83                    1935 ___str_3:
   0A83 00                 1936 	.db 0x00
                           1937 	.area _CODE
                           1938 	.area _INITIALIZER
                           1939 	.area _CABS (ABS)
