ASxxxx Linker V03.00 + NoICE + sdld,  page 1.
Hexadecimal  [32-Bits]

Area                                    Addr        Size        Decimal Bytes (Attributes)
--------------------------------        ----        ----        ------- ----- ------------
.  .ABS.                            00000000    00000000 =           0. bytes (ABS,CON)

      Value  Global                              Global Defined In Module
      -----  --------------------------------   ------------------------
     00000000  .__.ABS.                           
     00000000  _putchar                        
     00000000  l__BSEG                         
     00000000  l__BSS                          
     00000000  l__CABS                         
     00000000  l__DABS                         
     00000000  l__HEADER                       
     00000000  l__HOME                         
     00000000  l__INITIALIZED                  
     00000000  l__INITIALIZER                  
     00000000  s__CABS                         
     00000000  s__DABS                         
     00000000  s__HEADER                       
     00000000  s__HEADER0                      
     00000000  s__HEADER1                      
     00000000  s__HEADER2                      
     00000000  s__HEADER3                      
     00000000  s__HEADER4                      
     00000000  s__HEADER5                      
     00000000  s__HEADER6                      
     00000000  s__HEADER7                      
     00000000  s__HEADER8                      
     00000001  l__GSFINAL                      
     00000001  l__HEAP_END                     
     00000002  l__DATA                         
     00000003  l__HEADER0                      
     00000003  l__HEADER2                      
     00000003  l__HEADER3                      
     00000003  l__HEADER4                      
     00000003  l__HEADER5                      
     00000003  l__HEADER6                      
     00000003  l__HEADER7                      
     00000004  l__HEADER1                      
     0000000C  l__HEADER8                      
     00000012  l__GSINIT                       
     00000200  s__CODE                         
     000003FF  l__HEAP                         
     00001B13  l__CODE                         
     00001D13  s__GSINIT                       
     00001D13  s__HOME                         
     00001D13  s__INITIALIZER                  
     00001D25  s__GSFINAL                      
     00008000  s__DATA                         
     00008002  s__BSEG                         
     00008002  s__BSS                          
     00008002  s__HEAP                         
     00008002  s__INITIALIZED                  
     00008401  s__HEAP_END                     
ASxxxx Linker V03.00 + NoICE + sdld,  page 2.
Hexadecimal  [32-Bits]

Area                                    Addr        Size        Decimal Bytes (Attributes)
--------------------------------        ----        ----        ------- ----- ------------
_CODE                               00000200    00001B13 =        6931. bytes (REL,CON)

      Value  Global                              Global Defined In Module
      -----  --------------------------------   ------------------------
     00000200  __clock                            crt0
     00000204  _exit                              crt0
     0000020A  A$xor_z80_sdcc_O0set_binaries/xo   xor
     0000020A  C$xor.c$37$0_0$64                  xor
     0000020A  C$xor.c$38$1_0$64                  xor
     0000020A  Fxor$rol$0$0                       xor
     0000020E  A$xor_z80_sdcc_O0set_binaries/xo   xor
     00000210  A$xor_z80_sdcc_O0set_binaries/xo   xor
     00000213  A$xor_z80_sdcc_O0set_binaries/xo   xor
     00000215  A$xor_z80_sdcc_O0set_binaries/xo   xor
     00000218  A$xor_z80_sdcc_O0set_binaries/xo   xor
     00000219  A$xor_z80_sdcc_O0set_binaries/xo   xor
     0000021C  A$xor_z80_sdcc_O0set_binaries/xo   xor
     0000021E  A$xor_z80_sdcc_O0set_binaries/xo   xor
     00000220  A$xor_z80_sdcc_O0set_binaries/xo   xor
     00000223  A$xor_z80_sdcc_O0set_binaries/xo   xor
     00000225  A$xor_z80_sdcc_O0set_binaries/xo   xor
     00000226  A$xor_z80_sdcc_O0set_binaries/xo   xor
     00000227  A$xor_z80_sdcc_O0set_binaries/xo   xor
     00000229  A$xor_z80_sdcc_O0set_binaries/xo   xor
     0000022C  A$xor_z80_sdcc_O0set_binaries/xo   xor
     0000022D  A$xor_z80_sdcc_O0set_binaries/xo   xor
     00000230  A$xor_z80_sdcc_O0set_binaries/xo   xor
     00000232  A$xor_z80_sdcc_O0set_binaries/xo   xor
     00000234  A$xor_z80_sdcc_O0set_binaries/xo   xor
     00000235  A$xor_z80_sdcc_O0set_binaries/xo   xor
     00000236  A$xor_z80_sdcc_O0set_binaries/xo   xor
     00000237  A$xor_z80_sdcc_O0set_binaries/xo   xor
     00000237  C$xor.c$39$1_0$64                  xor
     00000237  XFxor$rol$0$0                      xor
     00000238  Fxor$SBOX$0_0$0                    xor
     00000338  A$xor_z80_sdcc_O0set_binaries/xo   xor
     00000338  C$xor.c$42$1_0$66                  xor
     00000338  G$xor_init$0$0                     xor
     00000338  _xor_init                          xor
     0000033A  A$xor_z80_sdcc_O0set_binaries/xo   xor
     0000033E  A$xor_z80_sdcc_O0set_binaries/xo   xor
     00000340  A$xor_z80_sdcc_O0set_binaries/xo   xor
     00000343  A$xor_z80_sdcc_O0set_binaries/xo   xor
     00000344  A$xor_z80_sdcc_O0set_binaries/xo   xor
     00000345  A$xor_z80_sdcc_O0set_binaries/xo   xor
     00000345  C$xor.c$43$1_0$66                  xor
     00000348  A$xor_z80_sdcc_O0set_binaries/xo   xor
     0000034B  A$xor_z80_sdcc_O0set_binaries/xo   xor
     0000034C  A$xor_z80_sdcc_O0set_binaries/xo   xor
     0000034D  A$xor_z80_sdcc_O0set_binaries/xo   xor
     00000350  A$xor_z80_sdcc_O0set_binaries/xo   xor
     00000353  A$xor_z80_sdcc_O0set_binaries/xo   xor
     00000354  A$xor_z80_sdcc_O0set_binaries/xo   xor
     00000357  A$xor_z80_sdcc_O0set_binaries/xo   xor
ASxxxx Linker V03.00 + NoICE + sdld,  page 3.
Hexadecimal  [32-Bits]

Area                                    Addr        Size        Decimal Bytes (Attributes)
--------------------------------        ----        ----        ------- ----- ------------
_CODE                               00000200    00001B13 =        6931. bytes (REL,CON)

      Value  Global                              Global Defined In Module
      -----  --------------------------------   ------------------------
     00000359  A$xor_z80_sdcc_O0set_binaries/xo   xor
     0000035A  A$xor_z80_sdcc_O0set_binaries/xo   xor
     0000035A  C$xor.c$45$5_0$70                  xor
     0000035D  A$xor_z80_sdcc_O0set_binaries/xo   xor
     0000035E  A$xor_z80_sdcc_O0set_binaries/xo   xor
     0000035F  A$xor_z80_sdcc_O0set_binaries/xo   xor
     00000362  A$xor_z80_sdcc_O0set_binaries/xo   xor
     00000363  A$xor_z80_sdcc_O0set_binaries/xo   xor
     00000365  A$xor_z80_sdcc_O0set_binaries/xo   xor
     00000366  A$xor_z80_sdcc_O0set_binaries/xo   xor
     00000367  A$xor_z80_sdcc_O0set_binaries/xo   xor
     00000368  A$xor_z80_sdcc_O0set_binaries/xo   xor
     00000369  A$xor_z80_sdcc_O0set_binaries/xo   xor
     0000036B  A$xor_z80_sdcc_O0set_binaries/xo   xor
     0000036E  A$xor_z80_sdcc_O0set_binaries/xo   xor
     0000036E  C$xor.c$46$5_0$70                  xor
     0000036F  A$xor_z80_sdcc_O0set_binaries/xo   xor
     00000370  A$xor_z80_sdcc_O0set_binaries/xo   xor
     00000371  A$xor_z80_sdcc_O0set_binaries/xo   xor
     00000372  A$xor_z80_sdcc_O0set_binaries/xo   xor
     00000373  A$xor_z80_sdcc_O0set_binaries/xo   xor
     00000374  A$xor_z80_sdcc_O0set_binaries/xo   xor
     00000375  A$xor_z80_sdcc_O0set_binaries/xo   xor
     00000378  A$xor_z80_sdcc_O0set_binaries/xo   xor
     0000037B  A$xor_z80_sdcc_O0set_binaries/xo   xor
     0000037C  A$xor_z80_sdcc_O0set_binaries/xo   xor
     0000037F  A$xor_z80_sdcc_O0set_binaries/xo   xor
     00000380  A$xor_z80_sdcc_O0set_binaries/xo   xor
     00000381  A$xor_z80_sdcc_O0set_binaries/xo   xor
     00000384  A$xor_z80_sdcc_O0set_binaries/xo   xor
     00000385  A$xor_z80_sdcc_O0set_binaries/xo   xor
     00000386  A$xor_z80_sdcc_O0set_binaries/xo   xor
     00000387  A$xor_z80_sdcc_O0set_binaries/xo   xor
     0000038A  A$xor_z80_sdcc_O0set_binaries/xo   xor
     0000038D  A$xor_z80_sdcc_O0set_binaries/xo   xor
     0000038E  A$xor_z80_sdcc_O0set_binaries/xo   xor
     0000038F  A$xor_z80_sdcc_O0set_binaries/xo   xor
     00000390  A$xor_z80_sdcc_O0set_binaries/xo   xor
     00000391  A$xor_z80_sdcc_O0set_binaries/xo   xor
     00000392  A$xor_z80_sdcc_O0set_binaries/xo   xor
     00000393  A$xor_z80_sdcc_O0set_binaries/xo   xor
     00000394  A$xor_z80_sdcc_O0set_binaries/xo   xor
     00000397  A$xor_z80_sdcc_O0set_binaries/xo   xor
     00000398  A$xor_z80_sdcc_O0set_binaries/xo   xor
     0000039B  A$xor_z80_sdcc_O0set_binaries/xo   xor
     0000039E  A$xor_z80_sdcc_O0set_binaries/xo   xor
     0000039F  A$xor_z80_sdcc_O0set_binaries/xo   xor
     000003A2  A$xor_z80_sdcc_O0set_binaries/xo   xor
     000003A3  A$xor_z80_sdcc_O0set_binaries/xo   xor
     000003A6  A$xor_z80_sdcc_O0set_binaries/xo   xor
     000003A9  A$xor_z80_sdcc_O0set_binaries/xo   xor
ASxxxx Linker V03.00 + NoICE + sdld,  page 4.
Hexadecimal  [32-Bits]

Area                                    Addr        Size        Decimal Bytes (Attributes)
--------------------------------        ----        ----        ------- ----- ------------
_CODE                               00000200    00001B13 =        6931. bytes (REL,CON)

      Value  Global                              Global Defined In Module
      -----  --------------------------------   ------------------------
     000003AC  A$xor_z80_sdcc_O0set_binaries/xo   xor
     000003AE  A$xor_z80_sdcc_O0set_binaries/xo   xor
     000003B1  A$xor_z80_sdcc_O0set_binaries/xo   xor
     000003B2  A$xor_z80_sdcc_O0set_binaries/xo   xor
     000003B3  A$xor_z80_sdcc_O0set_binaries/xo   xor
     000003B4  A$xor_z80_sdcc_O0set_binaries/xo   xor
     000003B6  A$xor_z80_sdcc_O0set_binaries/xo   xor
     000003B9  A$xor_z80_sdcc_O0set_binaries/xo   xor
     000003B9  C$xor.c$47$5_0$70                  xor
     000003BC  A$xor_z80_sdcc_O0set_binaries/xo   xor
     000003BF  A$xor_z80_sdcc_O0set_binaries/xo   xor
     000003C0  A$xor_z80_sdcc_O0set_binaries/xo   xor
     000003C1  A$xor_z80_sdcc_O0set_binaries/xo   xor
     000003C4  A$xor_z80_sdcc_O0set_binaries/xo   xor
     000003C5  A$xor_z80_sdcc_O0set_binaries/xo   xor
     000003C6  A$xor_z80_sdcc_O0set_binaries/xo   xor
     000003C9  A$xor_z80_sdcc_O0set_binaries/xo   xor
     000003CA  A$xor_z80_sdcc_O0set_binaries/xo   xor
     000003CB  A$xor_z80_sdcc_O0set_binaries/xo   xor
     000003CC  A$xor_z80_sdcc_O0set_binaries/xo   xor
     000003CD  A$xor_z80_sdcc_O0set_binaries/xo   xor
     000003CE  A$xor_z80_sdcc_O0set_binaries/xo   xor
     000003D1  A$xor_z80_sdcc_O0set_binaries/xo   xor
     000003D4  A$xor_z80_sdcc_O0set_binaries/xo   xor
     000003D5  A$xor_z80_sdcc_O0set_binaries/xo   xor
     000003D6  A$xor_z80_sdcc_O0set_binaries/xo   xor
     000003D9  A$xor_z80_sdcc_O0set_binaries/xo   xor
     000003D9  C$xor.c$48$5_0$70                  xor
     000003DC  A$xor_z80_sdcc_O0set_binaries/xo   xor
     000003DF  A$xor_z80_sdcc_O0set_binaries/xo   xor
     000003E0  A$xor_z80_sdcc_O0set_binaries/xo   xor
     000003E1  A$xor_z80_sdcc_O0set_binaries/xo   xor
     000003E2  A$xor_z80_sdcc_O0set_binaries/xo   xor
     000003E3  A$xor_z80_sdcc_O0set_binaries/xo   xor
     000003E4  A$xor_z80_sdcc_O0set_binaries/xo   xor
     000003E5  A$xor_z80_sdcc_O0set_binaries/xo   xor
     000003E8  A$xor_z80_sdcc_O0set_binaries/xo   xor
     000003EB  A$xor_z80_sdcc_O0set_binaries/xo   xor
     000003EC  A$xor_z80_sdcc_O0set_binaries/xo   xor
     000003EE  A$xor_z80_sdcc_O0set_binaries/xo   xor
     000003F1  A$xor_z80_sdcc_O0set_binaries/xo   xor
     000003F2  A$xor_z80_sdcc_O0set_binaries/xo   xor
     000003F3  A$xor_z80_sdcc_O0set_binaries/xo   xor
     000003F6  A$xor_z80_sdcc_O0set_binaries/xo   xor
     000003F9  A$xor_z80_sdcc_O0set_binaries/xo   xor
     000003F9  C$xor.c$49$6_0$71                  xor
     000003FA  A$xor_z80_sdcc_O0set_binaries/xo   xor
     000003FD  A$xor_z80_sdcc_O0set_binaries/xo   xor
     000003FE  A$xor_z80_sdcc_O0set_binaries/xo   xor
     000003FF  A$xor_z80_sdcc_O0set_binaries/xo   xor
     000003FF  C$xor.c$38$8_0$73                  xor
ASxxxx Linker V03.00 + NoICE + sdld,  page 5.
Hexadecimal  [32-Bits]

Area                                    Addr        Size        Decimal Bytes (Attributes)
--------------------------------        ----        ----        ------- ----- ------------
_CODE                               00000200    00001B13 =        6931. bytes (REL,CON)

      Value  Global                              Global Defined In Module
      -----  --------------------------------   ------------------------
     00000400  A$xor_z80_sdcc_O0set_binaries/xo   xor
     00000403  A$xor_z80_sdcc_O0set_binaries/xo   xor
     00000404  A$xor_z80_sdcc_O0set_binaries/xo   xor
     00000407  A$xor_z80_sdcc_O0set_binaries/xo   xor
     00000409  A$xor_z80_sdcc_O0set_binaries/xo   xor
     0000040A  A$xor_z80_sdcc_O0set_binaries/xo   xor
     0000040C  A$xor_z80_sdcc_O0set_binaries/xo   xor
     0000040F  A$xor_z80_sdcc_O0set_binaries/xo   xor
     00000411  A$xor_z80_sdcc_O0set_binaries/xo   xor
     00000412  A$xor_z80_sdcc_O0set_binaries/xo   xor
     00000413  A$xor_z80_sdcc_O0set_binaries/xo   xor
     00000416  A$xor_z80_sdcc_O0set_binaries/xo   xor
     00000418  A$xor_z80_sdcc_O0set_binaries/xo   xor
     00000419  A$xor_z80_sdcc_O0set_binaries/xo   xor
     0000041B  A$xor_z80_sdcc_O0set_binaries/xo   xor
     0000041C  A$xor_z80_sdcc_O0set_binaries/xo   xor
     0000041D  A$xor_z80_sdcc_O0set_binaries/xo   xor
     0000041D  C$xor.c$49$7_0$72                  xor
     00000420  A$xor_z80_sdcc_O0set_binaries/xo   xor
     00000421  A$xor_z80_sdcc_O0set_binaries/xo   xor
     00000421  C$xor.c$50$5_0$70                  xor
     00000424  A$xor_z80_sdcc_O0set_binaries/xo   xor
     00000427  A$xor_z80_sdcc_O0set_binaries/xo   xor
     00000428  A$xor_z80_sdcc_O0set_binaries/xo   xor
     0000042B  A$xor_z80_sdcc_O0set_binaries/xo   xor
     0000042E  A$xor_z80_sdcc_O0set_binaries/xo   xor
     0000042F  A$xor_z80_sdcc_O0set_binaries/xo   xor
     00000430  A$xor_z80_sdcc_O0set_binaries/xo   xor
     00000430  C$xor.c$46$4_0$69                  xor
     00000433  A$xor_z80_sdcc_O0set_binaries/xo   xor
     00000436  A$xor_z80_sdcc_O0set_binaries/xo   xor
     00000439  A$xor_z80_sdcc_O0set_binaries/xo   xor
     0000043C  A$xor_z80_sdcc_O0set_binaries/xo   xor
     0000043C  C$xor.c$45$2_0$67                  xor
     0000043D  A$xor_z80_sdcc_O0set_binaries/xo   xor
     00000440  A$xor_z80_sdcc_O0set_binaries/xo   xor
     00000442  A$xor_z80_sdcc_O0set_binaries/xo   xor
     00000444  A$xor_z80_sdcc_O0set_binaries/xo   xor
     00000444  C$xor.c$53$2_0$66                  xor
     00000444  XG$xor_init$0$0                    xor
     00000445  A$xor_z80_sdcc_O0set_binaries/xo   xor
     00000445  C$xor.c$56$2_0$76                  xor
     00000445  Fxor$sub$0$0                       xor
     00000447  A$xor_z80_sdcc_O0set_binaries/xo   xor
     0000044B  A$xor_z80_sdcc_O0set_binaries/xo   xor
     0000044D  A$xor_z80_sdcc_O0set_binaries/xo   xor
     0000044D  C$xor.c$57$2_0$76                  xor
     00000450  A$xor_z80_sdcc_O0set_binaries/xo   xor
     00000451  A$xor_z80_sdcc_O0set_binaries/xo   xor
     00000453  A$xor_z80_sdcc_O0set_binaries/xo   xor
     00000454  A$xor_z80_sdcc_O0set_binaries/xo   xor
ASxxxx Linker V03.00 + NoICE + sdld,  page 6.
Hexadecimal  [32-Bits]

Area                                    Addr        Size        Decimal Bytes (Attributes)
--------------------------------        ----        ----        ------- ----- ------------
_CODE                               00000200    00001B13 =        6931. bytes (REL,CON)

      Value  Global                              Global Defined In Module
      -----  --------------------------------   ------------------------
     00000455  A$xor_z80_sdcc_O0set_binaries/xo   xor
     00000456  A$xor_z80_sdcc_O0set_binaries/xo   xor
     00000457  A$xor_z80_sdcc_O0set_binaries/xo   xor
     00000459  A$xor_z80_sdcc_O0set_binaries/xo   xor
     0000045C  A$xor_z80_sdcc_O0set_binaries/xo   xor
     0000045F  A$xor_z80_sdcc_O0set_binaries/xo   xor
     00000460  A$xor_z80_sdcc_O0set_binaries/xo   xor
     00000461  A$xor_z80_sdcc_O0set_binaries/xo   xor
     00000464  A$xor_z80_sdcc_O0set_binaries/xo   xor
     00000465  A$xor_z80_sdcc_O0set_binaries/xo   xor
     00000466  A$xor_z80_sdcc_O0set_binaries/xo   xor
     00000467  A$xor_z80_sdcc_O0set_binaries/xo   xor
     00000469  A$xor_z80_sdcc_O0set_binaries/xo   xor
     0000046A  A$xor_z80_sdcc_O0set_binaries/xo   xor
     0000046C  A$xor_z80_sdcc_O0set_binaries/xo   xor
     0000046E  A$xor_z80_sdcc_O0set_binaries/xo   xor
     0000046F  A$xor_z80_sdcc_O0set_binaries/xo   xor
     00000470  A$xor_z80_sdcc_O0set_binaries/xo   xor
     00000471  A$xor_z80_sdcc_O0set_binaries/xo   xor
     00000472  A$xor_z80_sdcc_O0set_binaries/xo   xor
     00000475  A$xor_z80_sdcc_O0set_binaries/xo   xor
     00000477  A$xor_z80_sdcc_O0set_binaries/xo   xor
     00000477  C$xor.c$58$2_0$76                  xor
     00000477  XFxor$sub$0$0                      xor
     00000478  A$xor_z80_sdcc_O0set_binaries/xo   xor
     00000478  C$xor.c$61$2_0$78                  xor
     00000478  Fxor$perm$0$0                      xor
     0000047A  A$xor_z80_sdcc_O0set_binaries/xo   xor
     0000047E  A$xor_z80_sdcc_O0set_binaries/xo   xor
     00000480  A$xor_z80_sdcc_O0set_binaries/xo   xor
     00000483  A$xor_z80_sdcc_O0set_binaries/xo   xor
     00000484  A$xor_z80_sdcc_O0set_binaries/xo   xor
     00000485  A$xor_z80_sdcc_O0set_binaries/xo   xor
     00000488  A$xor_z80_sdcc_O0set_binaries/xo   xor
     00000489  A$xor_z80_sdcc_O0set_binaries/xo   xor
     0000048C  A$xor_z80_sdcc_O0set_binaries/xo   xor
     0000048F  A$xor_z80_sdcc_O0set_binaries/xo   xor
     00000492  A$xor_z80_sdcc_O0set_binaries/xo   xor
     00000493  A$xor_z80_sdcc_O0set_binaries/xo   xor
     00000495  A$xor_z80_sdcc_O0set_binaries/xo   xor
     00000496  A$xor_z80_sdcc_O0set_binaries/xo   xor
     00000497  A$xor_z80_sdcc_O0set_binaries/xo   xor
     00000498  A$xor_z80_sdcc_O0set_binaries/xo   xor
     00000499  A$xor_z80_sdcc_O0set_binaries/xo   xor
     0000049B  A$xor_z80_sdcc_O0set_binaries/xo   xor
     0000049E  A$xor_z80_sdcc_O0set_binaries/xo   xor
     0000049E  C$xor.c$64$2_0$79                  xor
     000004A1  A$xor_z80_sdcc_O0set_binaries/xo   xor
     000004A2  A$xor_z80_sdcc_O0set_binaries/xo   xor
     000004A5  A$xor_z80_sdcc_O0set_binaries/xo   xor
     000004A8  A$xor_z80_sdcc_O0set_binaries/xo   xor
ASxxxx Linker V03.00 + NoICE + sdld,  page 7.
Hexadecimal  [32-Bits]

Area                                    Addr        Size        Decimal Bytes (Attributes)
--------------------------------        ----        ----        ------- ----- ------------
_CODE                               00000200    00001B13 =        6931. bytes (REL,CON)

      Value  Global                              Global Defined In Module
      -----  --------------------------------   ------------------------
     000004A9  A$xor_z80_sdcc_O0set_binaries/xo   xor
     000004AC  A$xor_z80_sdcc_O0set_binaries/xo   xor
     000004AD  A$xor_z80_sdcc_O0set_binaries/xo   xor
     000004AE  A$xor_z80_sdcc_O0set_binaries/xo   xor
     000004AF  A$xor_z80_sdcc_O0set_binaries/xo   xor
     000004B0  A$xor_z80_sdcc_O0set_binaries/xo   xor
     000004B3  A$xor_z80_sdcc_O0set_binaries/xo   xor
     000004B4  A$xor_z80_sdcc_O0set_binaries/xo   xor
     000004B5  A$xor_z80_sdcc_O0set_binaries/xo   xor
     000004B8  A$xor_z80_sdcc_O0set_binaries/xo   xor
     000004B9  A$xor_z80_sdcc_O0set_binaries/xo   xor
     000004BA  A$xor_z80_sdcc_O0set_binaries/xo   xor
     000004BD  A$xor_z80_sdcc_O0set_binaries/xo   xor
     000004BE  A$xor_z80_sdcc_O0set_binaries/xo   xor
     000004BF  A$xor_z80_sdcc_O0set_binaries/xo   xor
     000004C0  A$xor_z80_sdcc_O0set_binaries/xo   xor
     000004C1  A$xor_z80_sdcc_O0set_binaries/xo   xor
     000004C2  A$xor_z80_sdcc_O0set_binaries/xo   xor
     000004C5  A$xor_z80_sdcc_O0set_binaries/xo   xor
     000004C8  A$xor_z80_sdcc_O0set_binaries/xo   xor
     000004C9  A$xor_z80_sdcc_O0set_binaries/xo   xor
     000004CA  A$xor_z80_sdcc_O0set_binaries/xo   xor
     000004CD  A$xor_z80_sdcc_O0set_binaries/xo   xor
     000004D0  A$xor_z80_sdcc_O0set_binaries/xo   xor
     000004D1  A$xor_z80_sdcc_O0set_binaries/xo   xor
     000004D1  C$xor.c$63$2_0$79                  xor
     000004D2  A$xor_z80_sdcc_O0set_binaries/xo   xor
     000004D5  A$xor_z80_sdcc_O0set_binaries/xo   xor
     000004D5  C$xor.c$65$1_0$78                  xor
     000004D8  A$xor_z80_sdcc_O0set_binaries/xo   xor
     000004DB  A$xor_z80_sdcc_O0set_binaries/xo   xor
     000004DE  A$xor_z80_sdcc_O0set_binaries/xo   xor
     000004E1  A$xor_z80_sdcc_O0set_binaries/xo   xor
     000004E4  A$xor_z80_sdcc_O0set_binaries/xo   xor
     000004E6  A$xor_z80_sdcc_O0set_binaries/xo   xor
     000004E8  A$xor_z80_sdcc_O0set_binaries/xo   xor
     000004EA  A$xor_z80_sdcc_O0set_binaries/xo   xor
     000004EA  C$xor.c$66$1_0$78                  xor
     000004EA  XFxor$perm$0$0                     xor
     000004EB  A$xor_z80_sdcc_O0set_binaries/xo   xor
     000004EB  C$xor.c$69$1_0$82                  xor
     000004EB  Fxor$diff$0$0                      xor
     000004ED  A$xor_z80_sdcc_O0set_binaries/xo   xor
     000004F1  A$xor_z80_sdcc_O0set_binaries/xo   xor
     000004F3  A$xor_z80_sdcc_O0set_binaries/xo   xor
     000004F6  A$xor_z80_sdcc_O0set_binaries/xo   xor
     000004F7  A$xor_z80_sdcc_O0set_binaries/xo   xor
     000004F8  A$xor_z80_sdcc_O0set_binaries/xo   xor
     000004F8  C$xor.c$70$3_0$82                  xor
     000004FB  A$xor_z80_sdcc_O0set_binaries/xo   xor
     000004FC  A$xor_z80_sdcc_O0set_binaries/xo   xor
ASxxxx Linker V03.00 + NoICE + sdld,  page 8.
Hexadecimal  [32-Bits]

Area                                    Addr        Size        Decimal Bytes (Attributes)
--------------------------------        ----        ----        ------- ----- ------------
_CODE                               00000200    00001B13 =        6931. bytes (REL,CON)

      Value  Global                              Global Defined In Module
      -----  --------------------------------   ------------------------
     000004FE  A$xor_z80_sdcc_O0set_binaries/xo   xor
     000004FF  A$xor_z80_sdcc_O0set_binaries/xo   xor
     00000500  A$xor_z80_sdcc_O0set_binaries/xo   xor
     00000501  A$xor_z80_sdcc_O0set_binaries/xo   xor
     00000502  A$xor_z80_sdcc_O0set_binaries/xo   xor
     00000504  A$xor_z80_sdcc_O0set_binaries/xo   xor
     00000507  A$xor_z80_sdcc_O0set_binaries/xo   xor
     00000507  C$xor.c$71$3_0$83                  xor
     0000050A  A$xor_z80_sdcc_O0set_binaries/xo   xor
     0000050B  A$xor_z80_sdcc_O0set_binaries/xo   xor
     0000050C  A$xor_z80_sdcc_O0set_binaries/xo   xor
     0000050F  A$xor_z80_sdcc_O0set_binaries/xo   xor
     00000510  A$xor_z80_sdcc_O0set_binaries/xo   xor
     00000511  A$xor_z80_sdcc_O0set_binaries/xo   xor
     00000514  A$xor_z80_sdcc_O0set_binaries/xo   xor
     00000515  A$xor_z80_sdcc_O0set_binaries/xo   xor
     00000516  A$xor_z80_sdcc_O0set_binaries/xo   xor
     00000517  A$xor_z80_sdcc_O0set_binaries/xo   xor
     00000518  A$xor_z80_sdcc_O0set_binaries/xo   xor
     00000519  A$xor_z80_sdcc_O0set_binaries/xo   xor
     0000051A  A$xor_z80_sdcc_O0set_binaries/xo   xor
     0000051A  C$xor.c$72$3_0$83                  xor
     0000051B  A$xor_z80_sdcc_O0set_binaries/xo   xor
     0000051C  A$xor_z80_sdcc_O0set_binaries/xo   xor
     0000051D  A$xor_z80_sdcc_O0set_binaries/xo   xor
     0000051E  A$xor_z80_sdcc_O0set_binaries/xo   xor
     0000051F  A$xor_z80_sdcc_O0set_binaries/xo   xor
     00000522  A$xor_z80_sdcc_O0set_binaries/xo   xor
     00000523  A$xor_z80_sdcc_O0set_binaries/xo   xor
     00000524  A$xor_z80_sdcc_O0set_binaries/xo   xor
     00000527  A$xor_z80_sdcc_O0set_binaries/xo   xor
     00000528  A$xor_z80_sdcc_O0set_binaries/xo   xor
     00000529  A$xor_z80_sdcc_O0set_binaries/xo   xor
     0000052A  A$xor_z80_sdcc_O0set_binaries/xo   xor
     0000052B  A$xor_z80_sdcc_O0set_binaries/xo   xor
     0000052E  A$xor_z80_sdcc_O0set_binaries/xo   xor
     00000531  A$xor_z80_sdcc_O0set_binaries/xo   xor
     00000534  A$xor_z80_sdcc_O0set_binaries/xo   xor
     00000535  A$xor_z80_sdcc_O0set_binaries/xo   xor
     00000536  A$xor_z80_sdcc_O0set_binaries/xo   xor
     00000539  A$xor_z80_sdcc_O0set_binaries/xo   xor
     0000053A  A$xor_z80_sdcc_O0set_binaries/xo   xor
     0000053B  A$xor_z80_sdcc_O0set_binaries/xo   xor
     0000053C  A$xor_z80_sdcc_O0set_binaries/xo   xor
     0000053F  A$xor_z80_sdcc_O0set_binaries/xo   xor
     00000542  A$xor_z80_sdcc_O0set_binaries/xo   xor
     00000545  A$xor_z80_sdcc_O0set_binaries/xo   xor
     00000546  A$xor_z80_sdcc_O0set_binaries/xo   xor
     00000549  A$xor_z80_sdcc_O0set_binaries/xo   xor
     0000054C  A$xor_z80_sdcc_O0set_binaries/xo   xor
     0000054D  A$xor_z80_sdcc_O0set_binaries/xo   xor
ASxxxx Linker V03.00 + NoICE + sdld,  page 9.
Hexadecimal  [32-Bits]

Area                                    Addr        Size        Decimal Bytes (Attributes)
--------------------------------        ----        ----        ------- ----- ------------
_CODE                               00000200    00001B13 =        6931. bytes (REL,CON)

      Value  Global                              Global Defined In Module
      -----  --------------------------------   ------------------------
     0000054E  A$xor_z80_sdcc_O0set_binaries/xo   xor
     0000054E  C$xor.c$38$6_0$86                  xor
     0000054F  A$xor_z80_sdcc_O0set_binaries/xo   xor
     00000551  A$xor_z80_sdcc_O0set_binaries/xo   xor
     00000553  A$xor_z80_sdcc_O0set_binaries/xo   xor
     00000554  A$xor_z80_sdcc_O0set_binaries/xo   xor
     00000555  A$xor_z80_sdcc_O0set_binaries/xo   xor
     00000557  A$xor_z80_sdcc_O0set_binaries/xo   xor
     00000558  A$xor_z80_sdcc_O0set_binaries/xo   xor
     0000055B  A$xor_z80_sdcc_O0set_binaries/xo   xor
     0000055B  C$xor.c$73$3_0$83                  xor
     0000055E  A$xor_z80_sdcc_O0set_binaries/xo   xor
     00000561  A$xor_z80_sdcc_O0set_binaries/xo   xor
     00000562  A$xor_z80_sdcc_O0set_binaries/xo   xor
     00000565  A$xor_z80_sdcc_O0set_binaries/xo   xor
     00000568  A$xor_z80_sdcc_O0set_binaries/xo   xor
     00000569  A$xor_z80_sdcc_O0set_binaries/xo   xor
     0000056A  A$xor_z80_sdcc_O0set_binaries/xo   xor
     0000056B  A$xor_z80_sdcc_O0set_binaries/xo   xor
     0000056C  A$xor_z80_sdcc_O0set_binaries/xo   xor
     0000056D  A$xor_z80_sdcc_O0set_binaries/xo   xor
     0000056F  A$xor_z80_sdcc_O0set_binaries/xo   xor
     00000572  A$xor_z80_sdcc_O0set_binaries/xo   xor
     00000575  A$xor_z80_sdcc_O0set_binaries/xo   xor
     00000576  A$xor_z80_sdcc_O0set_binaries/xo   xor
     00000576  C$xor.c$70$2_0$82                  xor
     00000577  A$xor_z80_sdcc_O0set_binaries/xo   xor
     00000578  A$xor_z80_sdcc_O0set_binaries/xo   xor
     0000057B  A$xor_z80_sdcc_O0set_binaries/xo   xor
     0000057D  A$xor_z80_sdcc_O0set_binaries/xo   xor
     0000057F  A$xor_z80_sdcc_O0set_binaries/xo   xor
     0000057F  C$xor.c$75$2_0$82                  xor
     0000057F  XFxor$diff$0$0                     xor
     00000580  A$xor_z80_sdcc_O0set_binaries/xo   xor
     00000580  C$xor.c$78$2_0$88                  xor
     00000580  G$xor_encrypt_block$0$0            xor
     00000580  _xor_encrypt_block                 xor
     00000582  A$xor_z80_sdcc_O0set_binaries/xo   xor
     00000586  A$xor_z80_sdcc_O0set_binaries/xo   xor
     00000588  A$xor_z80_sdcc_O0set_binaries/xo   xor
     0000058B  A$xor_z80_sdcc_O0set_binaries/xo   xor
     0000058C  A$xor_z80_sdcc_O0set_binaries/xo   xor
     0000058D  A$xor_z80_sdcc_O0set_binaries/xo   xor
     0000058D  C$xor.c$80$1_0$88                  xor
     00000590  A$xor_z80_sdcc_O0set_binaries/xo   xor
     00000591  A$xor_z80_sdcc_O0set_binaries/xo   xor
     00000592  A$xor_z80_sdcc_O0set_binaries/xo   xor
     00000593  A$xor_z80_sdcc_O0set_binaries/xo   xor
     00000594  A$xor_z80_sdcc_O0set_binaries/xo   xor
     00000595  A$xor_z80_sdcc_O0set_binaries/xo   xor
     00000598  A$xor_z80_sdcc_O0set_binaries/xo   xor
ASxxxx Linker V03.00 + NoICE + sdld,  page 10.
Hexadecimal  [32-Bits]

Area                                    Addr        Size        Decimal Bytes (Attributes)
--------------------------------        ----        ----        ------- ----- ------------
_CODE                               00000200    00001B13 =        6931. bytes (REL,CON)

      Value  Global                              Global Defined In Module
      -----  --------------------------------   ------------------------
     0000059B  A$xor_z80_sdcc_O0set_binaries/xo   xor
     0000059C  A$xor_z80_sdcc_O0set_binaries/xo   xor
     0000059F  A$xor_z80_sdcc_O0set_binaries/xo   xor
     000005A1  A$xor_z80_sdcc_O0set_binaries/xo   xor
     000005A2  A$xor_z80_sdcc_O0set_binaries/xo   xor
     000005A2  C$xor.c$82$4_0$91                  xor
     000005A5  A$xor_z80_sdcc_O0set_binaries/xo   xor
     000005A8  A$xor_z80_sdcc_O0set_binaries/xo   xor
     000005AB  A$xor_z80_sdcc_O0set_binaries/xo   xor
     000005AC  A$xor_z80_sdcc_O0set_binaries/xo   xor
     000005AF  A$xor_z80_sdcc_O0set_binaries/xo   xor
     000005B2  A$xor_z80_sdcc_O0set_binaries/xo   xor
     000005B5  A$xor_z80_sdcc_O0set_binaries/xo   xor
     000005B8  A$xor_z80_sdcc_O0set_binaries/xo   xor
     000005BB  A$xor_z80_sdcc_O0set_binaries/xo   xor
     000005BE  A$xor_z80_sdcc_O0set_binaries/xo   xor
     000005C1  A$xor_z80_sdcc_O0set_binaries/xo   xor
     000005C4  A$xor_z80_sdcc_O0set_binaries/xo   xor
     000005C7  A$xor_z80_sdcc_O0set_binaries/xo   xor
     000005C8  A$xor_z80_sdcc_O0set_binaries/xo   xor
     000005CA  A$xor_z80_sdcc_O0set_binaries/xo   xor
     000005CB  A$xor_z80_sdcc_O0set_binaries/xo   xor
     000005CC  A$xor_z80_sdcc_O0set_binaries/xo   xor
     000005CD  A$xor_z80_sdcc_O0set_binaries/xo   xor
     000005CE  A$xor_z80_sdcc_O0set_binaries/xo   xor
     000005D0  A$xor_z80_sdcc_O0set_binaries/xo   xor
     000005D3  A$xor_z80_sdcc_O0set_binaries/xo   xor
     000005D4  A$xor_z80_sdcc_O0set_binaries/xo   xor
     000005D5  A$xor_z80_sdcc_O0set_binaries/xo   xor
     000005D6  A$xor_z80_sdcc_O0set_binaries/xo   xor
     000005D7  A$xor_z80_sdcc_O0set_binaries/xo   xor
     000005D8  A$xor_z80_sdcc_O0set_binaries/xo   xor
     000005D9  A$xor_z80_sdcc_O0set_binaries/xo   xor
     000005DA  A$xor_z80_sdcc_O0set_binaries/xo   xor
     000005DB  A$xor_z80_sdcc_O0set_binaries/xo   xor
     000005DE  A$xor_z80_sdcc_O0set_binaries/xo   xor
     000005E1  A$xor_z80_sdcc_O0set_binaries/xo   xor
     000005E2  A$xor_z80_sdcc_O0set_binaries/xo   xor
     000005E5  A$xor_z80_sdcc_O0set_binaries/xo   xor
     000005E8  A$xor_z80_sdcc_O0set_binaries/xo   xor
     000005E9  A$xor_z80_sdcc_O0set_binaries/xo   xor
     000005EC  A$xor_z80_sdcc_O0set_binaries/xo   xor
     000005EF  A$xor_z80_sdcc_O0set_binaries/xo   xor
     000005F2  A$xor_z80_sdcc_O0set_binaries/xo   xor
     000005F4  A$xor_z80_sdcc_O0set_binaries/xo   xor
     000005F7  A$xor_z80_sdcc_O0set_binaries/xo   xor
     000005F8  A$xor_z80_sdcc_O0set_binaries/xo   xor
     000005F9  A$xor_z80_sdcc_O0set_binaries/xo   xor
     000005FA  A$xor_z80_sdcc_O0set_binaries/xo   xor
     000005FC  A$xor_z80_sdcc_O0set_binaries/xo   xor
     000005FF  A$xor_z80_sdcc_O0set_binaries/xo   xor
ASxxxx Linker V03.00 + NoICE + sdld,  page 11.
Hexadecimal  [32-Bits]

Area                                    Addr        Size        Decimal Bytes (Attributes)
--------------------------------        ----        ----        ------- ----- ------------
_CODE                               00000200    00001B13 =        6931. bytes (REL,CON)

      Value  Global                              Global Defined In Module
      -----  --------------------------------   ------------------------
     000005FF  C$xor.c$84$4_0$91                  xor
     00000600  A$xor_z80_sdcc_O0set_binaries/xo   xor
     00000603  A$xor_z80_sdcc_O0set_binaries/xo   xor
     00000606  A$xor_z80_sdcc_O0set_binaries/xo   xor
     00000607  A$xor_z80_sdcc_O0set_binaries/xo   xor
     0000060A  A$xor_z80_sdcc_O0set_binaries/xo   xor
     0000060D  A$xor_z80_sdcc_O0set_binaries/xo   xor
     00000610  A$xor_z80_sdcc_O0set_binaries/xo   xor
     00000613  A$xor_z80_sdcc_O0set_binaries/xo   xor
     00000614  A$xor_z80_sdcc_O0set_binaries/xo   xor
     00000617  A$xor_z80_sdcc_O0set_binaries/xo   xor
     0000061A  A$xor_z80_sdcc_O0set_binaries/xo   xor
     0000061D  A$xor_z80_sdcc_O0set_binaries/xo   xor
     0000061E  A$xor_z80_sdcc_O0set_binaries/xo   xor
     00000621  A$xor_z80_sdcc_O0set_binaries/xo   xor
     00000624  A$xor_z80_sdcc_O0set_binaries/xo   xor
     00000625  A$xor_z80_sdcc_O0set_binaries/xo   xor
     00000626  A$xor_z80_sdcc_O0set_binaries/xo   xor
     00000629  A$xor_z80_sdcc_O0set_binaries/xo   xor
     0000062C  A$xor_z80_sdcc_O0set_binaries/xo   xor
     0000062F  A$xor_z80_sdcc_O0set_binaries/xo   xor
     00000630  A$xor_z80_sdcc_O0set_binaries/xo   xor
     00000630  C$xor.c$83$4_0$91                  xor
     00000633  A$xor_z80_sdcc_O0set_binaries/xo   xor
     00000636  A$xor_z80_sdcc_O0set_binaries/xo   xor
     00000639  A$xor_z80_sdcc_O0set_binaries/xo   xor
     0000063C  A$xor_z80_sdcc_O0set_binaries/xo   xor
     0000063C  C$xor.c$86$3_0$90                  xor
     0000063F  A$xor_z80_sdcc_O0set_binaries/xo   xor
     00000642  A$xor_z80_sdcc_O0set_binaries/xo   xor
     00000643  A$xor_z80_sdcc_O0set_binaries/xo   xor
     00000644  A$xor_z80_sdcc_O0set_binaries/xo   xor
     00000645  A$xor_z80_sdcc_O0set_binaries/xo   xor
     00000648  A$xor_z80_sdcc_O0set_binaries/xo   xor
     00000649  A$xor_z80_sdcc_O0set_binaries/xo   xor
     0000064A  A$xor_z80_sdcc_O0set_binaries/xo   xor
     0000064B  A$xor_z80_sdcc_O0set_binaries/xo   xor
     0000064B  C$xor.c$87$3_0$90                  xor
     0000064E  A$xor_z80_sdcc_O0set_binaries/xo   xor
     00000651  A$xor_z80_sdcc_O0set_binaries/xo   xor
     00000652  A$xor_z80_sdcc_O0set_binaries/xo   xor
     00000653  A$xor_z80_sdcc_O0set_binaries/xo   xor
     00000654  A$xor_z80_sdcc_O0set_binaries/xo   xor
     00000657  A$xor_z80_sdcc_O0set_binaries/xo   xor
     00000658  A$xor_z80_sdcc_O0set_binaries/xo   xor
     00000659  A$xor_z80_sdcc_O0set_binaries/xo   xor
     0000065A  A$xor_z80_sdcc_O0set_binaries/xo   xor
     0000065A  C$xor.c$88$3_0$90                  xor
     0000065B  A$xor_z80_sdcc_O0set_binaries/xo   xor
     0000065D  A$xor_z80_sdcc_O0set_binaries/xo   xor
     0000065E  A$xor_z80_sdcc_O0set_binaries/xo   xor
ASxxxx Linker V03.00 + NoICE + sdld,  page 12.
Hexadecimal  [32-Bits]

Area                                    Addr        Size        Decimal Bytes (Attributes)
--------------------------------        ----        ----        ------- ----- ------------
_CODE                               00000200    00001B13 =        6931. bytes (REL,CON)

      Value  Global                              Global Defined In Module
      -----  --------------------------------   ------------------------
     0000065F  A$xor_z80_sdcc_O0set_binaries/xo   xor
     00000660  A$xor_z80_sdcc_O0set_binaries/xo   xor
     00000661  A$xor_z80_sdcc_O0set_binaries/xo   xor
     00000663  A$xor_z80_sdcc_O0set_binaries/xo   xor
     00000666  A$xor_z80_sdcc_O0set_binaries/xo   xor
     00000669  A$xor_z80_sdcc_O0set_binaries/xo   xor
     0000066C  A$xor_z80_sdcc_O0set_binaries/xo   xor
     0000066D  A$xor_z80_sdcc_O0set_binaries/xo   xor
     0000066E  A$xor_z80_sdcc_O0set_binaries/xo   xor
     0000066F  A$xor_z80_sdcc_O0set_binaries/xo   xor
     00000672  A$xor_z80_sdcc_O0set_binaries/xo   xor
     00000673  A$xor_z80_sdcc_O0set_binaries/xo   xor
     00000674  A$xor_z80_sdcc_O0set_binaries/xo   xor
     00000675  A$xor_z80_sdcc_O0set_binaries/xo   xor
     00000675  C$xor.c$82$2_0$89                  xor
     00000676  A$xor_z80_sdcc_O0set_binaries/xo   xor
     00000679  A$xor_z80_sdcc_O0set_binaries/xo   xor
     00000679  C$xor.c$90$1_0$88                  xor
     0000067C  A$xor_z80_sdcc_O0set_binaries/xo   xor
     0000067F  A$xor_z80_sdcc_O0set_binaries/xo   xor
     00000680  A$xor_z80_sdcc_O0set_binaries/xo   xor
     00000681  A$xor_z80_sdcc_O0set_binaries/xo   xor
     00000684  A$xor_z80_sdcc_O0set_binaries/xo   xor
     00000686  A$xor_z80_sdcc_O0set_binaries/xo   xor
     00000688  A$xor_z80_sdcc_O0set_binaries/xo   xor
     0000068A  A$xor_z80_sdcc_O0set_binaries/xo   xor
     0000068A  C$xor.c$91$1_0$88                  xor
     0000068A  XG$xor_encrypt_block$0$0           xor
     0000068B  A$xor_z80_sdcc_O0set_binaries/xo   xor
     0000068B  C$xor.c$94$1_0$93                  xor
     0000068B  G$xor_decrypt_block$0$0            xor
     0000068B  _xor_decrypt_block                 xor
     0000068D  A$xor_z80_sdcc_O0set_binaries/xo   xor
     00000691  A$xor_z80_sdcc_O0set_binaries/xo   xor
     00000693  A$xor_z80_sdcc_O0set_binaries/xo   xor
     00000696  A$xor_z80_sdcc_O0set_binaries/xo   xor
     00000697  A$xor_z80_sdcc_O0set_binaries/xo   xor
     00000698  A$xor_z80_sdcc_O0set_binaries/xo   xor
     00000698  C$xor.c$96$1_0$93                  xor
     0000069B  A$xor_z80_sdcc_O0set_binaries/xo   xor
     0000069C  A$xor_z80_sdcc_O0set_binaries/xo   xor
     0000069F  A$xor_z80_sdcc_O0set_binaries/xo   xor
     000006A2  A$xor_z80_sdcc_O0set_binaries/xo   xor
     000006A5  A$xor_z80_sdcc_O0set_binaries/xo   xor
     000006A8  A$xor_z80_sdcc_O0set_binaries/xo   xor
     000006AB  A$xor_z80_sdcc_O0set_binaries/xo   xor
     000006AE  A$xor_z80_sdcc_O0set_binaries/xo   xor
     000006B1  A$xor_z80_sdcc_O0set_binaries/xo   xor
     000006B3  A$xor_z80_sdcc_O0set_binaries/xo   xor
     000006B3  C$xor.c$98$4_0$96                  xor
     000006B6  A$xor_z80_sdcc_O0set_binaries/xo   xor
ASxxxx Linker V03.00 + NoICE + sdld,  page 13.
Hexadecimal  [32-Bits]

Area                                    Addr        Size        Decimal Bytes (Attributes)
--------------------------------        ----        ----        ------- ----- ------------
_CODE                               00000200    00001B13 =        6931. bytes (REL,CON)

      Value  Global                              Global Defined In Module
      -----  --------------------------------   ------------------------
     000006B9  A$xor_z80_sdcc_O0set_binaries/xo   xor
     000006BC  A$xor_z80_sdcc_O0set_binaries/xo   xor
     000006BF  A$xor_z80_sdcc_O0set_binaries/xo   xor
     000006C2  A$xor_z80_sdcc_O0set_binaries/xo   xor
     000006C3  A$xor_z80_sdcc_O0set_binaries/xo   xor
     000006C6  A$xor_z80_sdcc_O0set_binaries/xo   xor
     000006C9  A$xor_z80_sdcc_O0set_binaries/xo   xor
     000006CC  A$xor_z80_sdcc_O0set_binaries/xo   xor
     000006CF  A$xor_z80_sdcc_O0set_binaries/xo   xor
     000006D2  A$xor_z80_sdcc_O0set_binaries/xo   xor
     000006D5  A$xor_z80_sdcc_O0set_binaries/xo   xor
     000006D8  A$xor_z80_sdcc_O0set_binaries/xo   xor
     000006DB  A$xor_z80_sdcc_O0set_binaries/xo   xor
     000006DE  A$xor_z80_sdcc_O0set_binaries/xo   xor
     000006E1  A$xor_z80_sdcc_O0set_binaries/xo   xor
     000006E4  A$xor_z80_sdcc_O0set_binaries/xo   xor
     000006E7  A$xor_z80_sdcc_O0set_binaries/xo   xor
     000006EA  A$xor_z80_sdcc_O0set_binaries/xo   xor
     000006EB  A$xor_z80_sdcc_O0set_binaries/xo   xor
     000006EE  A$xor_z80_sdcc_O0set_binaries/xo   xor
     000006F1  A$xor_z80_sdcc_O0set_binaries/xo   xor
     000006F5  A$xor_z80_sdcc_O0set_binaries/xo   xor
     000006F6  A$xor_z80_sdcc_O0set_binaries/xo   xor
     000006F9  A$xor_z80_sdcc_O0set_binaries/xo   xor
     000006FD  A$xor_z80_sdcc_O0set_binaries/xo   xor
     00000700  A$xor_z80_sdcc_O0set_binaries/xo   xor
     00000700  C$xor.c$99$1_0$93                  xor
     00000703  A$xor_z80_sdcc_O0set_binaries/xo   xor
     00000704  A$xor_z80_sdcc_O0set_binaries/xo   xor
     00000706  A$xor_z80_sdcc_O0set_binaries/xo   xor
     00000707  A$xor_z80_sdcc_O0set_binaries/xo   xor
     00000708  A$xor_z80_sdcc_O0set_binaries/xo   xor
     00000709  A$xor_z80_sdcc_O0set_binaries/xo   xor
     0000070A  A$xor_z80_sdcc_O0set_binaries/xo   xor
     0000070C  A$xor_z80_sdcc_O0set_binaries/xo   xor
     0000070F  A$xor_z80_sdcc_O0set_binaries/xo   xor
     00000712  A$xor_z80_sdcc_O0set_binaries/xo   xor
     00000715  A$xor_z80_sdcc_O0set_binaries/xo   xor
     00000716  A$xor_z80_sdcc_O0set_binaries/xo   xor
     00000717  A$xor_z80_sdcc_O0set_binaries/xo   xor
     0000071A  A$xor_z80_sdcc_O0set_binaries/xo   xor
     0000071B  A$xor_z80_sdcc_O0set_binaries/xo   xor
     0000071C  A$xor_z80_sdcc_O0set_binaries/xo   xor
     0000071D  A$xor_z80_sdcc_O0set_binaries/xo   xor
     00000720  A$xor_z80_sdcc_O0set_binaries/xo   xor
     00000720  C$xor.c$102$1_0$93                 xor
     00000721  A$xor_z80_sdcc_O0set_binaries/xo   xor
     00000724  A$xor_z80_sdcc_O0set_binaries/xo   xor
     00000727  A$xor_z80_sdcc_O0set_binaries/xo   xor
     0000072A  A$xor_z80_sdcc_O0set_binaries/xo   xor
     0000072C  A$xor_z80_sdcc_O0set_binaries/xo   xor
ASxxxx Linker V03.00 + NoICE + sdld,  page 14.
Hexadecimal  [32-Bits]

Area                                    Addr        Size        Decimal Bytes (Attributes)
--------------------------------        ----        ----        ------- ----- ------------
_CODE                               00000200    00001B13 =        6931. bytes (REL,CON)

      Value  Global                              Global Defined In Module
      -----  --------------------------------   ------------------------
     0000072F  A$xor_z80_sdcc_O0set_binaries/xo   xor
     00000730  A$xor_z80_sdcc_O0set_binaries/xo   xor
     00000731  A$xor_z80_sdcc_O0set_binaries/xo   xor
     00000732  A$xor_z80_sdcc_O0set_binaries/xo   xor
     00000734  A$xor_z80_sdcc_O0set_binaries/xo   xor
     00000737  A$xor_z80_sdcc_O0set_binaries/xo   xor
     00000737  C$xor.c$103$4_1$98                 xor
     0000073A  A$xor_z80_sdcc_O0set_binaries/xo   xor
     0000073D  A$xor_z80_sdcc_O0set_binaries/xo   xor
     0000073E  A$xor_z80_sdcc_O0set_binaries/xo   xor
     0000073F  A$xor_z80_sdcc_O0set_binaries/xo   xor
     00000740  A$xor_z80_sdcc_O0set_binaries/xo   xor
     00000741  A$xor_z80_sdcc_O0set_binaries/xo   xor
     00000744  A$xor_z80_sdcc_O0set_binaries/xo   xor
     00000747  A$xor_z80_sdcc_O0set_binaries/xo   xor
     0000074A  A$xor_z80_sdcc_O0set_binaries/xo   xor
     0000074C  A$xor_z80_sdcc_O0set_binaries/xo   xor
     0000074F  A$xor_z80_sdcc_O0set_binaries/xo   xor
     00000752  A$xor_z80_sdcc_O0set_binaries/xo   xor
     00000754  A$xor_z80_sdcc_O0set_binaries/xo   xor
     00000757  A$xor_z80_sdcc_O0set_binaries/xo   xor
     0000075A  A$xor_z80_sdcc_O0set_binaries/xo   xor
     0000075B  A$xor_z80_sdcc_O0set_binaries/xo   xor
     0000075E  A$xor_z80_sdcc_O0set_binaries/xo   xor
     00000761  A$xor_z80_sdcc_O0set_binaries/xo   xor
     00000762  A$xor_z80_sdcc_O0set_binaries/xo   xor
     00000765  A$xor_z80_sdcc_O0set_binaries/xo   xor
     00000766  A$xor_z80_sdcc_O0set_binaries/xo   xor
     00000767  A$xor_z80_sdcc_O0set_binaries/xo   xor
     0000076A  A$xor_z80_sdcc_O0set_binaries/xo   xor
     0000076B  A$xor_z80_sdcc_O0set_binaries/xo   xor
     0000076C  A$xor_z80_sdcc_O0set_binaries/xo   xor
     0000076F  A$xor_z80_sdcc_O0set_binaries/xo   xor
     00000770  A$xor_z80_sdcc_O0set_binaries/xo   xor
     00000771  A$xor_z80_sdcc_O0set_binaries/xo   xor
     00000774  A$xor_z80_sdcc_O0set_binaries/xo   xor
     00000777  A$xor_z80_sdcc_O0set_binaries/xo   xor
     00000778  A$xor_z80_sdcc_O0set_binaries/xo   xor
     0000077B  A$xor_z80_sdcc_O0set_binaries/xo   xor
     0000077E  A$xor_z80_sdcc_O0set_binaries/xo   xor
     0000077F  A$xor_z80_sdcc_O0set_binaries/xo   xor
     00000780  A$xor_z80_sdcc_O0set_binaries/xo   xor
     00000781  A$xor_z80_sdcc_O0set_binaries/xo   xor
     00000781  C$xor.c$102$4_1$98                 xor
     00000784  A$xor_z80_sdcc_O0set_binaries/xo   xor
     00000787  A$xor_z80_sdcc_O0set_binaries/xo   xor
     0000078A  A$xor_z80_sdcc_O0set_binaries/xo   xor
     0000078D  A$xor_z80_sdcc_O0set_binaries/xo   xor
     0000078D  C$xor.c$104$3_1$97                 xor
     00000790  A$xor_z80_sdcc_O0set_binaries/xo   xor
     00000793  A$xor_z80_sdcc_O0set_binaries/xo   xor
ASxxxx Linker V03.00 + NoICE + sdld,  page 15.
Hexadecimal  [32-Bits]

Area                                    Addr        Size        Decimal Bytes (Attributes)
--------------------------------        ----        ----        ------- ----- ------------
_CODE                               00000200    00001B13 =        6931. bytes (REL,CON)

      Value  Global                              Global Defined In Module
      -----  --------------------------------   ------------------------
     00000796  A$xor_z80_sdcc_O0set_binaries/xo   xor
     00000799  A$xor_z80_sdcc_O0set_binaries/xo   xor
     0000079C  A$xor_z80_sdcc_O0set_binaries/xo   xor
     0000079E  A$xor_z80_sdcc_O0set_binaries/xo   xor
     0000079E  C$xor.c$106$1_0$93                 xor
     000007A1  A$xor_z80_sdcc_O0set_binaries/xo   xor
     000007A2  A$xor_z80_sdcc_O0set_binaries/xo   xor
     000007A4  A$xor_z80_sdcc_O0set_binaries/xo   xor
     000007A5  A$xor_z80_sdcc_O0set_binaries/xo   xor
     000007A6  A$xor_z80_sdcc_O0set_binaries/xo   xor
     000007A7  A$xor_z80_sdcc_O0set_binaries/xo   xor
     000007A8  A$xor_z80_sdcc_O0set_binaries/xo   xor
     000007AA  A$xor_z80_sdcc_O0set_binaries/xo   xor
     000007AD  A$xor_z80_sdcc_O0set_binaries/xo   xor
     000007AD  C$xor.c$107$6_1$100                xor
     000007AE  A$xor_z80_sdcc_O0set_binaries/xo   xor
     000007B1  A$xor_z80_sdcc_O0set_binaries/xo   xor
     000007B4  A$xor_z80_sdcc_O0set_binaries/xo   xor
     000007B5  A$xor_z80_sdcc_O0set_binaries/xo   xor
     000007B8  A$xor_z80_sdcc_O0set_binaries/xo   xor
     000007BB  A$xor_z80_sdcc_O0set_binaries/xo   xor
     000007BE  A$xor_z80_sdcc_O0set_binaries/xo   xor
     000007C0  A$xor_z80_sdcc_O0set_binaries/xo   xor
     000007C2  A$xor_z80_sdcc_O0set_binaries/xo   xor
     000007C5  A$xor_z80_sdcc_O0set_binaries/xo   xor
     000007C5  C$xor.c$108$5_1$100                xor
     000007C7  A$xor_z80_sdcc_O0set_binaries/xo   xor
     000007CA  A$xor_z80_sdcc_O0set_binaries/xo   xor
     000007CB  A$xor_z80_sdcc_O0set_binaries/xo   xor
     000007CD  A$xor_z80_sdcc_O0set_binaries/xo   xor
     000007D0  A$xor_z80_sdcc_O0set_binaries/xo   xor
     000007D1  A$xor_z80_sdcc_O0set_binaries/xo   xor
     000007D2  A$xor_z80_sdcc_O0set_binaries/xo   xor
     000007D5  A$xor_z80_sdcc_O0set_binaries/xo   xor
     000007D8  A$xor_z80_sdcc_O0set_binaries/xo   xor
     000007D9  A$xor_z80_sdcc_O0set_binaries/xo   xor
     000007DA  A$xor_z80_sdcc_O0set_binaries/xo   xor
     000007DD  A$xor_z80_sdcc_O0set_binaries/xo   xor
     000007DE  A$xor_z80_sdcc_O0set_binaries/xo   xor
     000007DF  A$xor_z80_sdcc_O0set_binaries/xo   xor
     000007E0  A$xor_z80_sdcc_O0set_binaries/xo   xor
     000007E3  A$xor_z80_sdcc_O0set_binaries/xo   xor
     000007E6  A$xor_z80_sdcc_O0set_binaries/xo   xor
     000007E9  A$xor_z80_sdcc_O0set_binaries/xo   xor
     000007EC  A$xor_z80_sdcc_O0set_binaries/xo   xor
     000007EF  A$xor_z80_sdcc_O0set_binaries/xo   xor
     000007F2  A$xor_z80_sdcc_O0set_binaries/xo   xor
     000007F5  A$xor_z80_sdcc_O0set_binaries/xo   xor
     000007F6  A$xor_z80_sdcc_O0set_binaries/xo   xor
     000007F9  A$xor_z80_sdcc_O0set_binaries/xo   xor
     000007F9  C$xor.c$107$5_1$100                xor
ASxxxx Linker V03.00 + NoICE + sdld,  page 16.
Hexadecimal  [32-Bits]

Area                                    Addr        Size        Decimal Bytes (Attributes)
--------------------------------        ----        ----        ------- ----- ------------
_CODE                               00000200    00001B13 =        6931. bytes (REL,CON)

      Value  Global                              Global Defined In Module
      -----  --------------------------------   ------------------------
     000007FC  A$xor_z80_sdcc_O0set_binaries/xo   xor
     000007FF  A$xor_z80_sdcc_O0set_binaries/xo   xor
     00000802  A$xor_z80_sdcc_O0set_binaries/xo   xor
     00000805  A$xor_z80_sdcc_O0set_binaries/xo   xor
     00000808  A$xor_z80_sdcc_O0set_binaries/xo   xor
     0000080B  A$xor_z80_sdcc_O0set_binaries/xo   xor
     0000080E  A$xor_z80_sdcc_O0set_binaries/xo   xor
     00000811  A$xor_z80_sdcc_O0set_binaries/xo   xor
     00000811  C$xor.c$106$4_1$99                 xor
     00000812  A$xor_z80_sdcc_O0set_binaries/xo   xor
     00000815  A$xor_z80_sdcc_O0set_binaries/xo   xor
     00000818  A$xor_z80_sdcc_O0set_binaries/xo   xor
     0000081B  A$xor_z80_sdcc_O0set_binaries/xo   xor
     0000081C  A$xor_z80_sdcc_O0set_binaries/xo   xor
     0000081D  A$xor_z80_sdcc_O0set_binaries/xo   xor
     0000081E  A$xor_z80_sdcc_O0set_binaries/xo   xor
     0000081F  A$xor_z80_sdcc_O0set_binaries/xo   xor
     00000820  A$xor_z80_sdcc_O0set_binaries/xo   xor
     00000821  A$xor_z80_sdcc_O0set_binaries/xo   xor
     00000824  A$xor_z80_sdcc_O0set_binaries/xo   xor
     00000827  A$xor_z80_sdcc_O0set_binaries/xo   xor
     00000828  A$xor_z80_sdcc_O0set_binaries/xo   xor
     0000082B  A$xor_z80_sdcc_O0set_binaries/xo   xor
     0000082E  A$xor_z80_sdcc_O0set_binaries/xo   xor
     00000831  A$xor_z80_sdcc_O0set_binaries/xo   xor
     00000832  A$xor_z80_sdcc_O0set_binaries/xo   xor
     00000834  A$xor_z80_sdcc_O0set_binaries/xo   xor
     00000835  A$xor_z80_sdcc_O0set_binaries/xo   xor
     00000836  A$xor_z80_sdcc_O0set_binaries/xo   xor
     00000837  A$xor_z80_sdcc_O0set_binaries/xo   xor
     00000838  A$xor_z80_sdcc_O0set_binaries/xo   xor
     0000083A  A$xor_z80_sdcc_O0set_binaries/xo   xor
     0000083D  A$xor_z80_sdcc_O0set_binaries/xo   xor
     0000083D  C$xor.c$111$4_1$102                xor
     00000840  A$xor_z80_sdcc_O0set_binaries/xo   xor
     00000841  A$xor_z80_sdcc_O0set_binaries/xo   xor
     00000842  A$xor_z80_sdcc_O0set_binaries/xo   xor
     00000845  A$xor_z80_sdcc_O0set_binaries/xo   xor
     00000846  A$xor_z80_sdcc_O0set_binaries/xo   xor
     00000847  A$xor_z80_sdcc_O0set_binaries/xo   xor
     00000848  A$xor_z80_sdcc_O0set_binaries/xo   xor
     0000084B  A$xor_z80_sdcc_O0set_binaries/xo   xor
     0000084E  A$xor_z80_sdcc_O0set_binaries/xo   xor
     00000851  A$xor_z80_sdcc_O0set_binaries/xo   xor
     00000852  A$xor_z80_sdcc_O0set_binaries/xo   xor
     00000853  A$xor_z80_sdcc_O0set_binaries/xo   xor
     00000856  A$xor_z80_sdcc_O0set_binaries/xo   xor
     00000857  A$xor_z80_sdcc_O0set_binaries/xo   xor
     00000857  C$xor.c$110$4_1$102                xor
     00000858  A$xor_z80_sdcc_O0set_binaries/xo   xor
     0000085B  A$xor_z80_sdcc_O0set_binaries/xo   xor
ASxxxx Linker V03.00 + NoICE + sdld,  page 17.
Hexadecimal  [32-Bits]

Area                                    Addr        Size        Decimal Bytes (Attributes)
--------------------------------        ----        ----        ------- ----- ------------
_CODE                               00000200    00001B13 =        6931. bytes (REL,CON)

      Value  Global                              Global Defined In Module
      -----  --------------------------------   ------------------------
     0000085B  C$xor.c$98$2_0$94                  xor
     0000085E  A$xor_z80_sdcc_O0set_binaries/xo   xor
     00000861  A$xor_z80_sdcc_O0set_binaries/xo   xor
     00000862  A$xor_z80_sdcc_O0set_binaries/xo   xor
     00000865  A$xor_z80_sdcc_O0set_binaries/xo   xor
     00000868  A$xor_z80_sdcc_O0set_binaries/xo   xor
     0000086B  A$xor_z80_sdcc_O0set_binaries/xo   xor
     0000086B  C$xor.c$113$1_0$93                 xor
     0000086E  A$xor_z80_sdcc_O0set_binaries/xo   xor
     00000871  A$xor_z80_sdcc_O0set_binaries/xo   xor
     00000874  A$xor_z80_sdcc_O0set_binaries/xo   xor
     00000877  A$xor_z80_sdcc_O0set_binaries/xo   xor
     0000087A  A$xor_z80_sdcc_O0set_binaries/xo   xor
     0000087C  A$xor_z80_sdcc_O0set_binaries/xo   xor
     0000087E  A$xor_z80_sdcc_O0set_binaries/xo   xor
     00000880  A$xor_z80_sdcc_O0set_binaries/xo   xor
     00000880  C$xor.c$114$1_0$93                 xor
     00000880  XG$xor_decrypt_block$0$0           xor
     00000881  A$xor_z80_sdcc_O0set_binaries/xo   xor
     00000881  C$xor.c$117$1_0$105                xor
     00000881  G$xor_stream$0$0                   xor
     00000881  _xor_stream                        xor
     00000883  A$xor_z80_sdcc_O0set_binaries/xo   xor
     00000887  A$xor_z80_sdcc_O0set_binaries/xo   xor
     00000889  A$xor_z80_sdcc_O0set_binaries/xo   xor
     0000088C  A$xor_z80_sdcc_O0set_binaries/xo   xor
     0000088D  A$xor_z80_sdcc_O0set_binaries/xo   xor
     0000088E  A$xor_z80_sdcc_O0set_binaries/xo   xor
     0000088E  C$xor.c$120$3_0$106                xor
     00000891  A$xor_z80_sdcc_O0set_binaries/xo   xor
     00000892  A$xor_z80_sdcc_O0set_binaries/xo   xor
     00000895  A$xor_z80_sdcc_O0set_binaries/xo   xor
     00000898  A$xor_z80_sdcc_O0set_binaries/xo   xor
     0000089B  A$xor_z80_sdcc_O0set_binaries/xo   xor
     0000089D  A$xor_z80_sdcc_O0set_binaries/xo   xor
     000008A0  A$xor_z80_sdcc_O0set_binaries/xo   xor
     000008A3  A$xor_z80_sdcc_O0set_binaries/xo   xor
     000008A5  A$xor_z80_sdcc_O0set_binaries/xo   xor
     000008A8  A$xor_z80_sdcc_O0set_binaries/xo   xor
     000008AB  A$xor_z80_sdcc_O0set_binaries/xo   xor
     000008AC  A$xor_z80_sdcc_O0set_binaries/xo   xor
     000008AF  A$xor_z80_sdcc_O0set_binaries/xo   xor
     000008B2  A$xor_z80_sdcc_O0set_binaries/xo   xor
     000008B5  A$xor_z80_sdcc_O0set_binaries/xo   xor
     000008B8  A$xor_z80_sdcc_O0set_binaries/xo   xor
     000008BB  A$xor_z80_sdcc_O0set_binaries/xo   xor
     000008BE  A$xor_z80_sdcc_O0set_binaries/xo   xor
     000008BF  A$xor_z80_sdcc_O0set_binaries/xo   xor
     000008C2  A$xor_z80_sdcc_O0set_binaries/xo   xor
     000008C5  A$xor_z80_sdcc_O0set_binaries/xo   xor
     000008C8  A$xor_z80_sdcc_O0set_binaries/xo   xor
ASxxxx Linker V03.00 + NoICE + sdld,  page 18.
Hexadecimal  [32-Bits]

Area                                    Addr        Size        Decimal Bytes (Attributes)
--------------------------------        ----        ----        ------- ----- ------------
_CODE                               00000200    00001B13 =        6931. bytes (REL,CON)

      Value  Global                              Global Defined In Module
      -----  --------------------------------   ------------------------
     000008CB  A$xor_z80_sdcc_O0set_binaries/xo   xor
     000008CE  A$xor_z80_sdcc_O0set_binaries/xo   xor
     000008D1  A$xor_z80_sdcc_O0set_binaries/xo   xor
     000008D4  A$xor_z80_sdcc_O0set_binaries/xo   xor
     000008D4  C$xor.c$121$3_0$106                xor
     000008D7  A$xor_z80_sdcc_O0set_binaries/xo   xor
     000008DA  A$xor_z80_sdcc_O0set_binaries/xo   xor
     000008DC  A$xor_z80_sdcc_O0set_binaries/xo   xor
     000008DE  A$xor_z80_sdcc_O0set_binaries/xo   xor
     000008E0  A$xor_z80_sdcc_O0set_binaries/xo   xor
     000008E2  A$xor_z80_sdcc_O0set_binaries/xo   xor
     000008E4  A$xor_z80_sdcc_O0set_binaries/xo   xor
     000008E6  A$xor_z80_sdcc_O0set_binaries/xo   xor
     000008E8  A$xor_z80_sdcc_O0set_binaries/xo   xor
     000008EA  A$xor_z80_sdcc_O0set_binaries/xo   xor
     000008ED  A$xor_z80_sdcc_O0set_binaries/xo   xor
     000008F0  A$xor_z80_sdcc_O0set_binaries/xo   xor
     000008F1  A$xor_z80_sdcc_O0set_binaries/xo   xor
     000008F4  A$xor_z80_sdcc_O0set_binaries/xo   xor
     000008F7  A$xor_z80_sdcc_O0set_binaries/xo   xor
     000008FA  A$xor_z80_sdcc_O0set_binaries/xo   xor
     000008FD  A$xor_z80_sdcc_O0set_binaries/xo   xor
     00000900  A$xor_z80_sdcc_O0set_binaries/xo   xor
     00000903  A$xor_z80_sdcc_O0set_binaries/xo   xor
     00000903  C$xor.c$122$3_0$106                xor
     00000906  A$xor_z80_sdcc_O0set_binaries/xo   xor
     00000909  A$xor_z80_sdcc_O0set_binaries/xo   xor
     0000090C  A$xor_z80_sdcc_O0set_binaries/xo   xor
     0000090D  A$xor_z80_sdcc_O0set_binaries/xo   xor
     00000910  A$xor_z80_sdcc_O0set_binaries/xo   xor
     00000912  A$xor_z80_sdcc_O0set_binaries/xo   xor
     00000912  C$xor.c$123$3_0$106                xor
     00000915  A$xor_z80_sdcc_O0set_binaries/xo   xor
     00000918  A$xor_z80_sdcc_O0set_binaries/xo   xor
     0000091B  A$xor_z80_sdcc_O0set_binaries/xo   xor
     0000091C  A$xor_z80_sdcc_O0set_binaries/xo   xor
     0000091F  A$xor_z80_sdcc_O0set_binaries/xo   xor
     00000921  A$xor_z80_sdcc_O0set_binaries/xo   xor
     00000921  C$xor.c$125$3_0$106                xor
     00000924  A$xor_z80_sdcc_O0set_binaries/xo   xor
     00000927  A$xor_z80_sdcc_O0set_binaries/xo   xor
     0000092A  A$xor_z80_sdcc_O0set_binaries/xo   xor
     0000092D  A$xor_z80_sdcc_O0set_binaries/xo   xor
     00000930  A$xor_z80_sdcc_O0set_binaries/xo   xor
     00000933  A$xor_z80_sdcc_O0set_binaries/xo   xor
     00000934  A$xor_z80_sdcc_O0set_binaries/xo   xor
     00000935  A$xor_z80_sdcc_O0set_binaries/xo   xor
     00000936  A$xor_z80_sdcc_O0set_binaries/xo   xor
     00000939  A$xor_z80_sdcc_O0set_binaries/xo   xor
     0000093C  A$xor_z80_sdcc_O0set_binaries/xo   xor
     0000093D  A$xor_z80_sdcc_O0set_binaries/xo   xor
ASxxxx Linker V03.00 + NoICE + sdld,  page 19.
Hexadecimal  [32-Bits]

Area                                    Addr        Size        Decimal Bytes (Attributes)
--------------------------------        ----        ----        ------- ----- ------------
_CODE                               00000200    00001B13 =        6931. bytes (REL,CON)

      Value  Global                              Global Defined In Module
      -----  --------------------------------   ------------------------
     0000093E  A$xor_z80_sdcc_O0set_binaries/xo   xor
     0000093E  C$xor.c$127$2_0$105                xor
     00000941  A$xor_z80_sdcc_O0set_binaries/xo   xor
     00000943  A$xor_z80_sdcc_O0set_binaries/xo   xor
     00000946  A$xor_z80_sdcc_O0set_binaries/xo   xor
     00000949  A$xor_z80_sdcc_O0set_binaries/xo   xor
     0000094B  A$xor_z80_sdcc_O0set_binaries/xo   xor
     0000094E  A$xor_z80_sdcc_O0set_binaries/xo   xor
     00000951  A$xor_z80_sdcc_O0set_binaries/xo   xor
     00000954  A$xor_z80_sdcc_O0set_binaries/xo   xor
     00000957  A$xor_z80_sdcc_O0set_binaries/xo   xor
     0000095A  A$xor_z80_sdcc_O0set_binaries/xo   xor
     0000095D  A$xor_z80_sdcc_O0set_binaries/xo   xor
     00000960  A$xor_z80_sdcc_O0set_binaries/xo   xor
     00000963  A$xor_z80_sdcc_O0set_binaries/xo   xor
     00000966  A$xor_z80_sdcc_O0set_binaries/xo   xor
     00000969  A$xor_z80_sdcc_O0set_binaries/xo   xor
     0000096C  A$xor_z80_sdcc_O0set_binaries/xo   xor
     0000096F  A$xor_z80_sdcc_O0set_binaries/xo   xor
     00000972  A$xor_z80_sdcc_O0set_binaries/xo   xor
     00000976  A$xor_z80_sdcc_O0set_binaries/xo   xor
     00000977  A$xor_z80_sdcc_O0set_binaries/xo   xor
     0000097A  A$xor_z80_sdcc_O0set_binaries/xo   xor
     0000097D  A$xor_z80_sdcc_O0set_binaries/xo   xor
     00000980  A$xor_z80_sdcc_O0set_binaries/xo   xor
     00000983  A$xor_z80_sdcc_O0set_binaries/xo   xor
     00000986  A$xor_z80_sdcc_O0set_binaries/xo   xor
     00000986  C$xor.c$128$2_0$105                xor
     00000989  A$xor_z80_sdcc_O0set_binaries/xo   xor
     0000098A  A$xor_z80_sdcc_O0set_binaries/xo   xor
     0000098D  A$xor_z80_sdcc_O0set_binaries/xo   xor
     0000098E  A$xor_z80_sdcc_O0set_binaries/xo   xor
     00000991  A$xor_z80_sdcc_O0set_binaries/xo   xor
     00000994  A$xor_z80_sdcc_O0set_binaries/xo   xor
     00000994  C$xor.c$129$4_1$108                xor
     00000997  A$xor_z80_sdcc_O0set_binaries/xo   xor
     00000998  A$xor_z80_sdcc_O0set_binaries/xo   xor
     00000999  A$xor_z80_sdcc_O0set_binaries/xo   xor
     0000099C  A$xor_z80_sdcc_O0set_binaries/xo   xor
     0000099D  A$xor_z80_sdcc_O0set_binaries/xo   xor
     0000099E  A$xor_z80_sdcc_O0set_binaries/xo   xor
     000009A1  A$xor_z80_sdcc_O0set_binaries/xo   xor
     000009A2  A$xor_z80_sdcc_O0set_binaries/xo   xor
     000009A5  A$xor_z80_sdcc_O0set_binaries/xo   xor
     000009A8  A$xor_z80_sdcc_O0set_binaries/xo   xor
     000009A9  A$xor_z80_sdcc_O0set_binaries/xo   xor
     000009AC  A$xor_z80_sdcc_O0set_binaries/xo   xor
     000009AF  A$xor_z80_sdcc_O0set_binaries/xo   xor
     000009B2  A$xor_z80_sdcc_O0set_binaries/xo   xor
     000009B3  A$xor_z80_sdcc_O0set_binaries/xo   xor
     000009B4  A$xor_z80_sdcc_O0set_binaries/xo   xor
ASxxxx Linker V03.00 + NoICE + sdld,  page 20.
Hexadecimal  [32-Bits]

Area                                    Addr        Size        Decimal Bytes (Attributes)
--------------------------------        ----        ----        ------- ----- ------------
_CODE                               00000200    00001B13 =        6931. bytes (REL,CON)

      Value  Global                              Global Defined In Module
      -----  --------------------------------   ------------------------
     000009B7  A$xor_z80_sdcc_O0set_binaries/xo   xor
     000009BA  A$xor_z80_sdcc_O0set_binaries/xo   xor
     000009BB  A$xor_z80_sdcc_O0set_binaries/xo   xor
     000009BC  A$xor_z80_sdcc_O0set_binaries/xo   xor
     000009BD  A$xor_z80_sdcc_O0set_binaries/xo   xor
     000009C0  A$xor_z80_sdcc_O0set_binaries/xo   xor
     000009C3  A$xor_z80_sdcc_O0set_binaries/xo   xor
     000009C4  A$xor_z80_sdcc_O0set_binaries/xo   xor
     000009C4  C$xor.c$128$4_1$108                xor
     000009C5  A$xor_z80_sdcc_O0set_binaries/xo   xor
     000009C8  A$xor_z80_sdcc_O0set_binaries/xo   xor
     000009C8  C$xor.c$120$2_0$105                xor
     000009CB  A$xor_z80_sdcc_O0set_binaries/xo   xor
     000009CE  A$xor_z80_sdcc_O0set_binaries/xo   xor
     000009D1  A$xor_z80_sdcc_O0set_binaries/xo   xor
     000009D4  A$xor_z80_sdcc_O0set_binaries/xo   xor
     000009D7  A$xor_z80_sdcc_O0set_binaries/xo   xor
     000009D9  A$xor_z80_sdcc_O0set_binaries/xo   xor
     000009DB  A$xor_z80_sdcc_O0set_binaries/xo   xor
     000009DB  C$xor.c$131$2_0$105                xor
     000009DB  XG$xor_stream$0$0                  xor
     000009DC  A$xor_z80_sdcc_O0set_binaries/xo   xor
     000009DC  C$xor.c$134$2_0$109                xor
     000009DC  G$main$0$0                         xor
     000009DC  _main                              xor
     000009DE  A$xor_z80_sdcc_O0set_binaries/xo   xor
     000009E2  A$xor_z80_sdcc_O0set_binaries/xo   xor
     000009E4  A$xor_z80_sdcc_O0set_binaries/xo   xor
     000009E7  A$xor_z80_sdcc_O0set_binaries/xo   xor
     000009E8  A$xor_z80_sdcc_O0set_binaries/xo   xor
     000009E9  A$xor_z80_sdcc_O0set_binaries/xo   xor
     000009E9  C$xor.c$137$2_0$110                xor
     000009EC  A$xor_z80_sdcc_O0set_binaries/xo   xor
     000009ED  A$xor_z80_sdcc_O0set_binaries/xo   xor
     000009EE  A$xor_z80_sdcc_O0set_binaries/xo   xor
     000009F1  A$xor_z80_sdcc_O0set_binaries/xo   xor
     000009F2  A$xor_z80_sdcc_O0set_binaries/xo   xor
     000009F3  A$xor_z80_sdcc_O0set_binaries/xo   xor
     000009F4  A$xor_z80_sdcc_O0set_binaries/xo   xor
     000009F5  A$xor_z80_sdcc_O0set_binaries/xo   xor
     000009F6  A$xor_z80_sdcc_O0set_binaries/xo   xor
     000009F7  A$xor_z80_sdcc_O0set_binaries/xo   xor
     000009F8  A$xor_z80_sdcc_O0set_binaries/xo   xor
     000009F9  A$xor_z80_sdcc_O0set_binaries/xo   xor
     000009FA  A$xor_z80_sdcc_O0set_binaries/xo   xor
     000009FC  A$xor_z80_sdcc_O0set_binaries/xo   xor
     000009FD  A$xor_z80_sdcc_O0set_binaries/xo   xor
     000009FE  A$xor_z80_sdcc_O0set_binaries/xo   xor
     000009FF  A$xor_z80_sdcc_O0set_binaries/xo   xor
     00000A00  A$xor_z80_sdcc_O0set_binaries/xo   xor
     00000A02  A$xor_z80_sdcc_O0set_binaries/xo   xor
ASxxxx Linker V03.00 + NoICE + sdld,  page 21.
Hexadecimal  [32-Bits]

Area                                    Addr        Size        Decimal Bytes (Attributes)
--------------------------------        ----        ----        ------- ----- ------------
_CODE                               00000200    00001B13 =        6931. bytes (REL,CON)

      Value  Global                              Global Defined In Module
      -----  --------------------------------   ------------------------
     00000A05  A$xor_z80_sdcc_O0set_binaries/xo   xor
     00000A05  C$xor.c$140$1_1$111                xor
     00000A08  A$xor_z80_sdcc_O0set_binaries/xo   xor
     00000A09  A$xor_z80_sdcc_O0set_binaries/xo   xor
     00000A0C  A$xor_z80_sdcc_O0set_binaries/xo   xor
     00000A0F  A$xor_z80_sdcc_O0set_binaries/xo   xor
     00000A12  A$xor_z80_sdcc_O0set_binaries/xo   xor
     00000A15  A$xor_z80_sdcc_O0set_binaries/xo   xor
     00000A16  A$xor_z80_sdcc_O0set_binaries/xo   xor
     00000A17  A$xor_z80_sdcc_O0set_binaries/xo   xor
     00000A1A  A$xor_z80_sdcc_O0set_binaries/xo   xor
     00000A1B  A$xor_z80_sdcc_O0set_binaries/xo   xor
     00000A1C  A$xor_z80_sdcc_O0set_binaries/xo   xor
     00000A1C  C$xor.c$142$2_1$112                xor
     00000A1F  A$xor_z80_sdcc_O0set_binaries/xo   xor
     00000A20  A$xor_z80_sdcc_O0set_binaries/xo   xor
     00000A21  A$xor_z80_sdcc_O0set_binaries/xo   xor
     00000A23  A$xor_z80_sdcc_O0set_binaries/xo   xor
     00000A24  A$xor_z80_sdcc_O0set_binaries/xo   xor
     00000A25  A$xor_z80_sdcc_O0set_binaries/xo   xor
     00000A26  A$xor_z80_sdcc_O0set_binaries/xo   xor
     00000A27  A$xor_z80_sdcc_O0set_binaries/xo   xor
     00000A29  A$xor_z80_sdcc_O0set_binaries/xo   xor
     00000A2A  A$xor_z80_sdcc_O0set_binaries/xo   xor
     00000A2B  A$xor_z80_sdcc_O0set_binaries/xo   xor
     00000A2C  A$xor_z80_sdcc_O0set_binaries/xo   xor
     00000A2D  A$xor_z80_sdcc_O0set_binaries/xo   xor
     00000A2F  A$xor_z80_sdcc_O0set_binaries/xo   xor
     00000A30  A$xor_z80_sdcc_O0set_binaries/xo   xor
     00000A31  A$xor_z80_sdcc_O0set_binaries/xo   xor
     00000A32  A$xor_z80_sdcc_O0set_binaries/xo   xor
     00000A33  A$xor_z80_sdcc_O0set_binaries/xo   xor
     00000A34  A$xor_z80_sdcc_O0set_binaries/xo   xor
     00000A36  A$xor_z80_sdcc_O0set_binaries/xo   xor
     00000A39  A$xor_z80_sdcc_O0set_binaries/xo   xor
     00000A3A  A$xor_z80_sdcc_O0set_binaries/xo   xor
     00000A3C  A$xor_z80_sdcc_O0set_binaries/xo   xor
     00000A3F  A$xor_z80_sdcc_O0set_binaries/xo   xor
     00000A40  A$xor_z80_sdcc_O0set_binaries/xo   xor
     00000A42  A$xor_z80_sdcc_O0set_binaries/xo   xor
     00000A45  A$xor_z80_sdcc_O0set_binaries/xo   xor
     00000A46  A$xor_z80_sdcc_O0set_binaries/xo   xor
     00000A48  A$xor_z80_sdcc_O0set_binaries/xo   xor
     00000A4B  A$xor_z80_sdcc_O0set_binaries/xo   xor
     00000A4C  A$xor_z80_sdcc_O0set_binaries/xo   xor
     00000A4E  A$xor_z80_sdcc_O0set_binaries/xo   xor
     00000A51  A$xor_z80_sdcc_O0set_binaries/xo   xor
     00000A52  A$xor_z80_sdcc_O0set_binaries/xo   xor
     00000A54  A$xor_z80_sdcc_O0set_binaries/xo   xor
     00000A57  A$xor_z80_sdcc_O0set_binaries/xo   xor
     00000A58  A$xor_z80_sdcc_O0set_binaries/xo   xor
ASxxxx Linker V03.00 + NoICE + sdld,  page 22.
Hexadecimal  [32-Bits]

Area                                    Addr        Size        Decimal Bytes (Attributes)
--------------------------------        ----        ----        ------- ----- ------------
_CODE                               00000200    00001B13 =        6931. bytes (REL,CON)

      Value  Global                              Global Defined In Module
      -----  --------------------------------   ------------------------
     00000A5A  A$xor_z80_sdcc_O0set_binaries/xo   xor
     00000A5D  A$xor_z80_sdcc_O0set_binaries/xo   xor
     00000A5E  A$xor_z80_sdcc_O0set_binaries/xo   xor
     00000A60  A$xor_z80_sdcc_O0set_binaries/xo   xor
     00000A63  A$xor_z80_sdcc_O0set_binaries/xo   xor
     00000A64  A$xor_z80_sdcc_O0set_binaries/xo   xor
     00000A66  A$xor_z80_sdcc_O0set_binaries/xo   xor
     00000A69  A$xor_z80_sdcc_O0set_binaries/xo   xor
     00000A6A  A$xor_z80_sdcc_O0set_binaries/xo   xor
     00000A6C  A$xor_z80_sdcc_O0set_binaries/xo   xor
     00000A6F  A$xor_z80_sdcc_O0set_binaries/xo   xor
     00000A70  A$xor_z80_sdcc_O0set_binaries/xo   xor
     00000A72  A$xor_z80_sdcc_O0set_binaries/xo   xor
     00000A75  A$xor_z80_sdcc_O0set_binaries/xo   xor
     00000A76  A$xor_z80_sdcc_O0set_binaries/xo   xor
     00000A78  A$xor_z80_sdcc_O0set_binaries/xo   xor
     00000A7B  A$xor_z80_sdcc_O0set_binaries/xo   xor
     00000A7C  A$xor_z80_sdcc_O0set_binaries/xo   xor
     00000A7E  A$xor_z80_sdcc_O0set_binaries/xo   xor
     00000A7E  C$xor.c$145$1_2$112                xor
     00000A7F  A$xor_z80_sdcc_O0set_binaries/xo   xor
     00000A82  A$xor_z80_sdcc_O0set_binaries/xo   xor
     00000A83  A$xor_z80_sdcc_O0set_binaries/xo   xor
     00000A86  A$xor_z80_sdcc_O0set_binaries/xo   xor
     00000A87  A$xor_z80_sdcc_O0set_binaries/xo   xor
     00000A88  A$xor_z80_sdcc_O0set_binaries/xo   xor
     00000A88  C$xor.c$147$1_2$112                xor
     00000A8B  A$xor_z80_sdcc_O0set_binaries/xo   xor
     00000A8E  A$xor_z80_sdcc_O0set_binaries/xo   xor
     00000A91  A$xor_z80_sdcc_O0set_binaries/xo   xor
     00000A92  A$xor_z80_sdcc_O0set_binaries/xo   xor
     00000A95  A$xor_z80_sdcc_O0set_binaries/xo   xor
     00000A98  A$xor_z80_sdcc_O0set_binaries/xo   xor
     00000A9B  A$xor_z80_sdcc_O0set_binaries/xo   xor
     00000A9E  A$xor_z80_sdcc_O0set_binaries/xo   xor
     00000AA1  A$xor_z80_sdcc_O0set_binaries/xo   xor
     00000AA4  A$xor_z80_sdcc_O0set_binaries/xo   xor
     00000AA5  A$xor_z80_sdcc_O0set_binaries/xo   xor
     00000AA6  A$xor_z80_sdcc_O0set_binaries/xo   xor
     00000AA7  A$xor_z80_sdcc_O0set_binaries/xo   xor
     00000AA8  A$xor_z80_sdcc_O0set_binaries/xo   xor
     00000AAB  A$xor_z80_sdcc_O0set_binaries/xo   xor
     00000AAE  A$xor_z80_sdcc_O0set_binaries/xo   xor
     00000AAF  A$xor_z80_sdcc_O0set_binaries/xo   xor
     00000AB0  A$xor_z80_sdcc_O0set_binaries/xo   xor
     00000AB3  A$xor_z80_sdcc_O0set_binaries/xo   xor
     00000AB6  A$xor_z80_sdcc_O0set_binaries/xo   xor
     00000AB7  A$xor_z80_sdcc_O0set_binaries/xo   xor
     00000AB8  A$xor_z80_sdcc_O0set_binaries/xo   xor
     00000AB9  A$xor_z80_sdcc_O0set_binaries/xo   xor
     00000AB9  C$xor.c$148$1_2$112                xor
ASxxxx Linker V03.00 + NoICE + sdld,  page 23.
Hexadecimal  [32-Bits]

Area                                    Addr        Size        Decimal Bytes (Attributes)
--------------------------------        ----        ----        ------- ----- ------------
_CODE                               00000200    00001B13 =        6931. bytes (REL,CON)

      Value  Global                              Global Defined In Module
      -----  --------------------------------   ------------------------
     00000ABC  A$xor_z80_sdcc_O0set_binaries/xo   xor
     00000ABF  A$xor_z80_sdcc_O0set_binaries/xo   xor
     00000AC2  A$xor_z80_sdcc_O0set_binaries/xo   xor
     00000AC3  A$xor_z80_sdcc_O0set_binaries/xo   xor
     00000AC6  A$xor_z80_sdcc_O0set_binaries/xo   xor
     00000AC9  A$xor_z80_sdcc_O0set_binaries/xo   xor
     00000ACC  A$xor_z80_sdcc_O0set_binaries/xo   xor
     00000ACF  A$xor_z80_sdcc_O0set_binaries/xo   xor
     00000AD2  A$xor_z80_sdcc_O0set_binaries/xo   xor
     00000AD5  A$xor_z80_sdcc_O0set_binaries/xo   xor
     00000AD8  A$xor_z80_sdcc_O0set_binaries/xo   xor
     00000ADB  A$xor_z80_sdcc_O0set_binaries/xo   xor
     00000ADC  A$xor_z80_sdcc_O0set_binaries/xo   xor
     00000ADD  A$xor_z80_sdcc_O0set_binaries/xo   xor
     00000AE0  A$xor_z80_sdcc_O0set_binaries/xo   xor
     00000AE3  A$xor_z80_sdcc_O0set_binaries/xo   xor
     00000AE4  A$xor_z80_sdcc_O0set_binaries/xo   xor
     00000AE5  A$xor_z80_sdcc_O0set_binaries/xo   xor
     00000AE8  A$xor_z80_sdcc_O0set_binaries/xo   xor
     00000AEB  A$xor_z80_sdcc_O0set_binaries/xo   xor
     00000AEC  A$xor_z80_sdcc_O0set_binaries/xo   xor
     00000AED  A$xor_z80_sdcc_O0set_binaries/xo   xor
     00000AEE  A$xor_z80_sdcc_O0set_binaries/xo   xor
     00000AEE  C$xor.c$150$1_2$112                xor
     00000AEF  A$xor_z80_sdcc_O0set_binaries/xo   xor
     00000AF2  A$xor_z80_sdcc_O0set_binaries/xo   xor
     00000AF3  A$xor_z80_sdcc_O0set_binaries/xo   xor
     00000AF6  A$xor_z80_sdcc_O0set_binaries/xo   xor
     00000AF7  A$xor_z80_sdcc_O0set_binaries/xo   xor
     00000AF8  A$xor_z80_sdcc_O0set_binaries/xo   xor
     00000AF8  C$xor.c$151$1_2$112                xor
     00000AF9  A$xor_z80_sdcc_O0set_binaries/xo   xor
     00000AFC  A$xor_z80_sdcc_O0set_binaries/xo   xor
     00000AFD  A$xor_z80_sdcc_O0set_binaries/xo   xor
     00000B00  A$xor_z80_sdcc_O0set_binaries/xo   xor
     00000B01  A$xor_z80_sdcc_O0set_binaries/xo   xor
     00000B02  A$xor_z80_sdcc_O0set_binaries/xo   xor
     00000B02  C$xor.c$152$2_2$113                xor
     00000B05  A$xor_z80_sdcc_O0set_binaries/xo   xor
     00000B06  A$xor_z80_sdcc_O0set_binaries/xo   xor
     00000B07  A$xor_z80_sdcc_O0set_binaries/xo   xor
     00000B08  A$xor_z80_sdcc_O0set_binaries/xo   xor
     00000B09  A$xor_z80_sdcc_O0set_binaries/xo   xor
     00000B0B  A$xor_z80_sdcc_O0set_binaries/xo   xor
     00000B0C  A$xor_z80_sdcc_O0set_binaries/xo   xor
     00000B0D  A$xor_z80_sdcc_O0set_binaries/xo   xor
     00000B0E  A$xor_z80_sdcc_O0set_binaries/xo   xor
     00000B11  A$xor_z80_sdcc_O0set_binaries/xo   xor
     00000B12  A$xor_z80_sdcc_O0set_binaries/xo   xor
     00000B15  A$xor_z80_sdcc_O0set_binaries/xo   xor
     00000B16  A$xor_z80_sdcc_O0set_binaries/xo   xor
ASxxxx Linker V03.00 + NoICE + sdld,  page 24.
Hexadecimal  [32-Bits]

Area                                    Addr        Size        Decimal Bytes (Attributes)
--------------------------------        ----        ----        ------- ----- ------------
_CODE                               00000200    00001B13 =        6931. bytes (REL,CON)

      Value  Global                              Global Defined In Module
      -----  --------------------------------   ------------------------
     00000B17  A$xor_z80_sdcc_O0set_binaries/xo   xor
     00000B18  A$xor_z80_sdcc_O0set_binaries/xo   xor
     00000B19  A$xor_z80_sdcc_O0set_binaries/xo   xor
     00000B1A  A$xor_z80_sdcc_O0set_binaries/xo   xor
     00000B1B  A$xor_z80_sdcc_O0set_binaries/xo   xor
     00000B1D  A$xor_z80_sdcc_O0set_binaries/xo   xor
     00000B1E  A$xor_z80_sdcc_O0set_binaries/xo   xor
     00000B1F  A$xor_z80_sdcc_O0set_binaries/xo   xor
     00000B20  A$xor_z80_sdcc_O0set_binaries/xo   xor
     00000B21  A$xor_z80_sdcc_O0set_binaries/xo   xor
     00000B23  A$xor_z80_sdcc_O0set_binaries/xo   xor
     00000B26  A$xor_z80_sdcc_O0set_binaries/xo   xor
     00000B29  A$xor_z80_sdcc_O0set_binaries/xo   xor
     00000B2A  A$xor_z80_sdcc_O0set_binaries/xo   xor
     00000B2D  A$xor_z80_sdcc_O0set_binaries/xo   xor
     00000B2E  A$xor_z80_sdcc_O0set_binaries/xo   xor
     00000B2E  C$xor.c$153$1_2$112                xor
     00000B31  A$xor_z80_sdcc_O0set_binaries/xo   xor
     00000B32  A$xor_z80_sdcc_O0set_binaries/xo   xor
     00000B35  A$xor_z80_sdcc_O0set_binaries/xo   xor
     00000B36  A$xor_z80_sdcc_O0set_binaries/xo   xor
     00000B36  C$xor.c$154$2_2$114                xor
     00000B39  A$xor_z80_sdcc_O0set_binaries/xo   xor
     00000B3C  A$xor_z80_sdcc_O0set_binaries/xo   xor
     00000B3F  A$xor_z80_sdcc_O0set_binaries/xo   xor
     00000B40  A$xor_z80_sdcc_O0set_binaries/xo   xor
     00000B41  A$xor_z80_sdcc_O0set_binaries/xo   xor
     00000B43  A$xor_z80_sdcc_O0set_binaries/xo   xor
     00000B44  A$xor_z80_sdcc_O0set_binaries/xo   xor
     00000B45  A$xor_z80_sdcc_O0set_binaries/xo   xor
     00000B48  A$xor_z80_sdcc_O0set_binaries/xo   xor
     00000B49  A$xor_z80_sdcc_O0set_binaries/xo   xor
     00000B4C  A$xor_z80_sdcc_O0set_binaries/xo   xor
     00000B4D  A$xor_z80_sdcc_O0set_binaries/xo   xor
     00000B4E  A$xor_z80_sdcc_O0set_binaries/xo   xor
     00000B4F  A$xor_z80_sdcc_O0set_binaries/xo   xor
     00000B50  A$xor_z80_sdcc_O0set_binaries/xo   xor
     00000B51  A$xor_z80_sdcc_O0set_binaries/xo   xor
     00000B53  A$xor_z80_sdcc_O0set_binaries/xo   xor
     00000B54  A$xor_z80_sdcc_O0set_binaries/xo   xor
     00000B55  A$xor_z80_sdcc_O0set_binaries/xo   xor
     00000B56  A$xor_z80_sdcc_O0set_binaries/xo   xor
     00000B57  A$xor_z80_sdcc_O0set_binaries/xo   xor
     00000B59  A$xor_z80_sdcc_O0set_binaries/xo   xor
     00000B5C  A$xor_z80_sdcc_O0set_binaries/xo   xor
     00000B5F  A$xor_z80_sdcc_O0set_binaries/xo   xor
     00000B60  A$xor_z80_sdcc_O0set_binaries/xo   xor
     00000B63  A$xor_z80_sdcc_O0set_binaries/xo   xor
     00000B64  A$xor_z80_sdcc_O0set_binaries/xo   xor
     00000B64  C$xor.c$155$1_2$112                xor
     00000B67  A$xor_z80_sdcc_O0set_binaries/xo   xor
ASxxxx Linker V03.00 + NoICE + sdld,  page 25.
Hexadecimal  [32-Bits]

Area                                    Addr        Size        Decimal Bytes (Attributes)
--------------------------------        ----        ----        ------- ----- ------------
_CODE                               00000200    00001B13 =        6931. bytes (REL,CON)

      Value  Global                              Global Defined In Module
      -----  --------------------------------   ------------------------
     00000B68  A$xor_z80_sdcc_O0set_binaries/xo   xor
     00000B6B  A$xor_z80_sdcc_O0set_binaries/xo   xor
     00000B6C  A$xor_z80_sdcc_O0set_binaries/xo   xor
     00000B6C  C$xor.c$156$2_2$115                xor
     00000B6F  A$xor_z80_sdcc_O0set_binaries/xo   xor
     00000B72  A$xor_z80_sdcc_O0set_binaries/xo   xor
     00000B75  A$xor_z80_sdcc_O0set_binaries/xo   xor
     00000B76  A$xor_z80_sdcc_O0set_binaries/xo   xor
     00000B77  A$xor_z80_sdcc_O0set_binaries/xo   xor
     00000B79  A$xor_z80_sdcc_O0set_binaries/xo   xor
     00000B7A  A$xor_z80_sdcc_O0set_binaries/xo   xor
     00000B7B  A$xor_z80_sdcc_O0set_binaries/xo   xor
     00000B7E  A$xor_z80_sdcc_O0set_binaries/xo   xor
     00000B7F  A$xor_z80_sdcc_O0set_binaries/xo   xor
     00000B82  A$xor_z80_sdcc_O0set_binaries/xo   xor
     00000B83  A$xor_z80_sdcc_O0set_binaries/xo   xor
     00000B84  A$xor_z80_sdcc_O0set_binaries/xo   xor
     00000B85  A$xor_z80_sdcc_O0set_binaries/xo   xor
     00000B86  A$xor_z80_sdcc_O0set_binaries/xo   xor
     00000B87  A$xor_z80_sdcc_O0set_binaries/xo   xor
     00000B89  A$xor_z80_sdcc_O0set_binaries/xo   xor
     00000B8A  A$xor_z80_sdcc_O0set_binaries/xo   xor
     00000B8B  A$xor_z80_sdcc_O0set_binaries/xo   xor
     00000B8C  A$xor_z80_sdcc_O0set_binaries/xo   xor
     00000B8D  A$xor_z80_sdcc_O0set_binaries/xo   xor
     00000B8F  A$xor_z80_sdcc_O0set_binaries/xo   xor
     00000B92  A$xor_z80_sdcc_O0set_binaries/xo   xor
     00000B95  A$xor_z80_sdcc_O0set_binaries/xo   xor
     00000B96  A$xor_z80_sdcc_O0set_binaries/xo   xor
     00000B99  A$xor_z80_sdcc_O0set_binaries/xo   xor
     00000B9A  A$xor_z80_sdcc_O0set_binaries/xo   xor
     00000B9A  C$xor.c$158$2_2$116                xor
     00000B9A  C$xor.c$159$1_3$116                xor
     00000B9D  A$xor_z80_sdcc_O0set_binaries/xo   xor
     00000B9E  A$xor_z80_sdcc_O0set_binaries/xo   xor
     00000BA1  A$xor_z80_sdcc_O0set_binaries/xo   xor
     00000BA2  A$xor_z80_sdcc_O0set_binaries/xo   xor
     00000BA5  A$xor_z80_sdcc_O0set_binaries/xo   xor
     00000BA8  A$xor_z80_sdcc_O0set_binaries/xo   xor
     00000BA8  C$xor.c$160$1_3$116                xor
     00000BAB  A$xor_z80_sdcc_O0set_binaries/xo   xor
     00000BAE  A$xor_z80_sdcc_O0set_binaries/xo   xor
     00000BAF  A$xor_z80_sdcc_O0set_binaries/xo   xor
     00000BB2  A$xor_z80_sdcc_O0set_binaries/xo   xor
     00000BB3  A$xor_z80_sdcc_O0set_binaries/xo   xor
     00000BB6  A$xor_z80_sdcc_O0set_binaries/xo   xor
     00000BB9  A$xor_z80_sdcc_O0set_binaries/xo   xor
     00000BBC  A$xor_z80_sdcc_O0set_binaries/xo   xor
     00000BBF  A$xor_z80_sdcc_O0set_binaries/xo   xor
     00000BC0  A$xor_z80_sdcc_O0set_binaries/xo   xor
     00000BC3  A$xor_z80_sdcc_O0set_binaries/xo   xor
ASxxxx Linker V03.00 + NoICE + sdld,  page 26.
Hexadecimal  [32-Bits]

Area                                    Addr        Size        Decimal Bytes (Attributes)
--------------------------------        ----        ----        ------- ----- ------------
_CODE                               00000200    00001B13 =        6931. bytes (REL,CON)

      Value  Global                              Global Defined In Module
      -----  --------------------------------   ------------------------
     00000BC4  A$xor_z80_sdcc_O0set_binaries/xo   xor
     00000BC7  A$xor_z80_sdcc_O0set_binaries/xo   xor
     00000BCA  A$xor_z80_sdcc_O0set_binaries/xo   xor
     00000BCA  C$xor.c$162$1_3$116                xor
     00000BCD  A$xor_z80_sdcc_O0set_binaries/xo   xor
     00000BD0  A$xor_z80_sdcc_O0set_binaries/xo   xor
     00000BD3  A$xor_z80_sdcc_O0set_binaries/xo   xor
     00000BD4  A$xor_z80_sdcc_O0set_binaries/xo   xor
     00000BD7  A$xor_z80_sdcc_O0set_binaries/xo   xor
     00000BD8  A$xor_z80_sdcc_O0set_binaries/xo   xor
     00000BDB  A$xor_z80_sdcc_O0set_binaries/xo   xor
     00000BDC  A$xor_z80_sdcc_O0set_binaries/xo   xor
     00000BDF  A$xor_z80_sdcc_O0set_binaries/xo   xor
     00000BE0  A$xor_z80_sdcc_O0set_binaries/xo   xor
     00000BE1  A$xor_z80_sdcc_O0set_binaries/xo   xor
     00000BE4  A$xor_z80_sdcc_O0set_binaries/xo   xor
     00000BE7  A$xor_z80_sdcc_O0set_binaries/xo   xor
     00000BE8  A$xor_z80_sdcc_O0set_binaries/xo   xor
     00000BEB  A$xor_z80_sdcc_O0set_binaries/xo   xor
     00000BEE  A$xor_z80_sdcc_O0set_binaries/xo   xor
     00000BEF  A$xor_z80_sdcc_O0set_binaries/xo   xor
     00000BF2  A$xor_z80_sdcc_O0set_binaries/xo   xor
     00000BF3  A$xor_z80_sdcc_O0set_binaries/xo   xor
     00000BF6  A$xor_z80_sdcc_O0set_binaries/xo   xor
     00000BF9  A$xor_z80_sdcc_O0set_binaries/xo   xor
     00000BFA  A$xor_z80_sdcc_O0set_binaries/xo   xor
     00000BFB  A$xor_z80_sdcc_O0set_binaries/xo   xor
     00000BFB  C$xor.c$163$1_3$116                xor
     00000BFE  A$xor_z80_sdcc_O0set_binaries/xo   xor
     00000C01  A$xor_z80_sdcc_O0set_binaries/xo   xor
     00000C04  A$xor_z80_sdcc_O0set_binaries/xo   xor
     00000C05  A$xor_z80_sdcc_O0set_binaries/xo   xor
     00000C08  A$xor_z80_sdcc_O0set_binaries/xo   xor
     00000C09  A$xor_z80_sdcc_O0set_binaries/xo   xor
     00000C0C  A$xor_z80_sdcc_O0set_binaries/xo   xor
     00000C0D  A$xor_z80_sdcc_O0set_binaries/xo   xor
     00000C10  A$xor_z80_sdcc_O0set_binaries/xo   xor
     00000C11  A$xor_z80_sdcc_O0set_binaries/xo   xor
     00000C12  A$xor_z80_sdcc_O0set_binaries/xo   xor
     00000C15  A$xor_z80_sdcc_O0set_binaries/xo   xor
     00000C18  A$xor_z80_sdcc_O0set_binaries/xo   xor
     00000C19  A$xor_z80_sdcc_O0set_binaries/xo   xor
     00000C1C  A$xor_z80_sdcc_O0set_binaries/xo   xor
     00000C1F  A$xor_z80_sdcc_O0set_binaries/xo   xor
     00000C20  A$xor_z80_sdcc_O0set_binaries/xo   xor
     00000C23  A$xor_z80_sdcc_O0set_binaries/xo   xor
     00000C26  A$xor_z80_sdcc_O0set_binaries/xo   xor
     00000C27  A$xor_z80_sdcc_O0set_binaries/xo   xor
     00000C2A  A$xor_z80_sdcc_O0set_binaries/xo   xor
     00000C2D  A$xor_z80_sdcc_O0set_binaries/xo   xor
     00000C2E  A$xor_z80_sdcc_O0set_binaries/xo   xor
ASxxxx Linker V03.00 + NoICE + sdld,  page 27.
Hexadecimal  [32-Bits]

Area                                    Addr        Size        Decimal Bytes (Attributes)
--------------------------------        ----        ----        ------- ----- ------------
_CODE                               00000200    00001B13 =        6931. bytes (REL,CON)

      Value  Global                              Global Defined In Module
      -----  --------------------------------   ------------------------
     00000C2F  A$xor_z80_sdcc_O0set_binaries/xo   xor
     00000C2F  C$xor.c$165$1_3$116                xor
     00000C32  A$xor_z80_sdcc_O0set_binaries/xo   xor
     00000C33  A$xor_z80_sdcc_O0set_binaries/xo   xor
     00000C36  A$xor_z80_sdcc_O0set_binaries/xo   xor
     00000C37  A$xor_z80_sdcc_O0set_binaries/xo   xor
     00000C37  C$xor.c$166$2_3$117                xor
     00000C3A  A$xor_z80_sdcc_O0set_binaries/xo   xor
     00000C3B  A$xor_z80_sdcc_O0set_binaries/xo   xor
     00000C3E  A$xor_z80_sdcc_O0set_binaries/xo   xor
     00000C3F  A$xor_z80_sdcc_O0set_binaries/xo   xor
     00000C42  A$xor_z80_sdcc_O0set_binaries/xo   xor
     00000C45  A$xor_z80_sdcc_O0set_binaries/xo   xor
     00000C48  A$xor_z80_sdcc_O0set_binaries/xo   xor
     00000C4B  A$xor_z80_sdcc_O0set_binaries/xo   xor
     00000C4C  A$xor_z80_sdcc_O0set_binaries/xo   xor
     00000C4D  A$xor_z80_sdcc_O0set_binaries/xo   xor
     00000C4F  A$xor_z80_sdcc_O0set_binaries/xo   xor
     00000C50  A$xor_z80_sdcc_O0set_binaries/xo   xor
     00000C51  A$xor_z80_sdcc_O0set_binaries/xo   xor
     00000C54  A$xor_z80_sdcc_O0set_binaries/xo   xor
     00000C55  A$xor_z80_sdcc_O0set_binaries/xo   xor
     00000C58  A$xor_z80_sdcc_O0set_binaries/xo   xor
     00000C59  A$xor_z80_sdcc_O0set_binaries/xo   xor
     00000C5A  A$xor_z80_sdcc_O0set_binaries/xo   xor
     00000C5B  A$xor_z80_sdcc_O0set_binaries/xo   xor
     00000C5C  A$xor_z80_sdcc_O0set_binaries/xo   xor
     00000C5F  A$xor_z80_sdcc_O0set_binaries/xo   xor
     00000C5F  C$xor.c$167$1_3$116                xor
     00000C62  A$xor_z80_sdcc_O0set_binaries/xo   xor
     00000C63  A$xor_z80_sdcc_O0set_binaries/xo   xor
     00000C66  A$xor_z80_sdcc_O0set_binaries/xo   xor
     00000C67  A$xor_z80_sdcc_O0set_binaries/xo   xor
     00000C67  C$xor.c$169$1_3$116                xor
     00000C6A  A$xor_z80_sdcc_O0set_binaries/xo   xor
     00000C6D  A$xor_z80_sdcc_O0set_binaries/xo   xor
     00000C6E  A$xor_z80_sdcc_O0set_binaries/xo   xor
     00000C71  A$xor_z80_sdcc_O0set_binaries/xo   xor
     00000C72  A$xor_z80_sdcc_O0set_binaries/xo   xor
     00000C75  A$xor_z80_sdcc_O0set_binaries/xo   xor
     00000C76  A$xor_z80_sdcc_O0set_binaries/xo   xor
     00000C77  A$xor_z80_sdcc_O0set_binaries/xo   xor
     00000C77  C$xor.c$171$1_3$116                xor
     00000C7A  A$xor_z80_sdcc_O0set_binaries/xo   xor
     00000C7D  A$xor_z80_sdcc_O0set_binaries/xo   xor
     00000C7E  A$xor_z80_sdcc_O0set_binaries/xo   xor
     00000C81  A$xor_z80_sdcc_O0set_binaries/xo   xor
     00000C82  A$xor_z80_sdcc_O0set_binaries/xo   xor
     00000C85  A$xor_z80_sdcc_O0set_binaries/xo   xor
     00000C88  A$xor_z80_sdcc_O0set_binaries/xo   xor
     00000C89  A$xor_z80_sdcc_O0set_binaries/xo   xor
ASxxxx Linker V03.00 + NoICE + sdld,  page 28.
Hexadecimal  [32-Bits]

Area                                    Addr        Size        Decimal Bytes (Attributes)
--------------------------------        ----        ----        ------- ----- ------------
_CODE                               00000200    00001B13 =        6931. bytes (REL,CON)

      Value  Global                              Global Defined In Module
      -----  --------------------------------   ------------------------
     00000C8C  A$xor_z80_sdcc_O0set_binaries/xo   xor
     00000C8D  A$xor_z80_sdcc_O0set_binaries/xo   xor
     00000C8F  A$xor_z80_sdcc_O0set_binaries/xo   xor
     00000C91  A$xor_z80_sdcc_O0set_binaries/xo   xor
     00000C91  C$xor.c$172$1_3$109                xor
     00000C91  XG$main$0$0                        xor
     00000C92  Fxor$__str_1$0_0$0                 xor
     00000CB7  Fxor$__str_3$0_0$0                 xor
     00000CD6  Fxor$__str_5$0_0$0                 xor
     00000CDD  Fxor$__str_6$0_0$0                 xor
     00000CE6  Fxor$__str_7$0_0$0                 xor
     00000CEC  Fxor$__str_9$0_0$0                 xor
     00000CED  Fxor$__str_10$0_0$0                xor
     00000CF6  Fxor$__str_12$0_0$0                xor
     00000CFF  Fxor$__str_14$0_0$0                xor
     00000D01  Fxor$__str_15$0_0$0                xor
     00000D14  Fxor$__str_16$0_0$0                xor
     00000D19  Fxor$__str_17$0_0$0                xor
     00000D2F  _free                              free
     00000E1A  ___sdcc_heap_init                  malloc
     00000E35  _malloc                            malloc
     00000F54  _puts                              puts
     00000F86  _vprintf                           vprintf
     00000FAE  _printf                            vprintf
     00000FCB  _strlen                            
     00000FDA  __modschar                         
     00000FE7  __modsint                          
     00001119  __print_format                     printf_large
     00001C89  __divsint                          
     00001C92  __divschar                         
     00001C99  __div8                             
     00001C9D  __div_signexte                     
     00001CA1  __div16                            
     00001CC7  __get_remainder                    
     00001CD1  __divuint                          
     00001CD9  __divuchar                         
     00001CE0  __divu8                            
     00001CE3  __divu16                           
     00001D12  ___sdcc_call_hl                    

ASxxxx Linker V03.00 + NoICE + sdld,  page 29.
Hexadecimal  [32-Bits]

Area                                    Addr        Size        Decimal Bytes (Attributes)
--------------------------------        ----        ----        ------- ----- ------------
_HEADER0                            00000000    00000003 =           3. bytes (ABS,CON)

      Value  Global                              Global Defined In Module
      -----  --------------------------------   ------------------------
ASxxxx Linker V03.00 + NoICE + sdld,  page 30.
Hexadecimal  [32-Bits]

Area                                    Addr        Size        Decimal Bytes (Attributes)
--------------------------------        ----        ----        ------- ----- ------------
_HEADER1                            00000000    00000004 =           4. bytes (ABS,CON)

      Value  Global                              Global Defined In Module
      -----  --------------------------------   ------------------------
ASxxxx Linker V03.00 + NoICE + sdld,  page 31.
Hexadecimal  [32-Bits]

Area                                    Addr        Size        Decimal Bytes (Attributes)
--------------------------------        ----        ----        ------- ----- ------------
_HEADER2                            00000000    00000003 =           3. bytes (ABS,CON)

      Value  Global                              Global Defined In Module
      -----  --------------------------------   ------------------------
ASxxxx Linker V03.00 + NoICE + sdld,  page 32.
Hexadecimal  [32-Bits]

Area                                    Addr        Size        Decimal Bytes (Attributes)
--------------------------------        ----        ----        ------- ----- ------------
_HEADER3                            00000000    00000003 =           3. bytes (ABS,CON)

      Value  Global                              Global Defined In Module
      -----  --------------------------------   ------------------------
ASxxxx Linker V03.00 + NoICE + sdld,  page 33.
Hexadecimal  [32-Bits]

Area                                    Addr        Size        Decimal Bytes (Attributes)
--------------------------------        ----        ----        ------- ----- ------------
_HEADER4                            00000000    00000003 =           3. bytes (ABS,CON)

      Value  Global                              Global Defined In Module
      -----  --------------------------------   ------------------------
ASxxxx Linker V03.00 + NoICE + sdld,  page 34.
Hexadecimal  [32-Bits]

Area                                    Addr        Size        Decimal Bytes (Attributes)
--------------------------------        ----        ----        ------- ----- ------------
_HEADER5                            00000000    00000003 =           3. bytes (ABS,CON)

      Value  Global                              Global Defined In Module
      -----  --------------------------------   ------------------------
ASxxxx Linker V03.00 + NoICE + sdld,  page 35.
Hexadecimal  [32-Bits]

Area                                    Addr        Size        Decimal Bytes (Attributes)
--------------------------------        ----        ----        ------- ----- ------------
_HEADER6                            00000000    00000003 =           3. bytes (ABS,CON)

      Value  Global                              Global Defined In Module
      -----  --------------------------------   ------------------------
ASxxxx Linker V03.00 + NoICE + sdld,  page 36.
Hexadecimal  [32-Bits]

Area                                    Addr        Size        Decimal Bytes (Attributes)
--------------------------------        ----        ----        ------- ----- ------------
_HEADER7                            00000000    00000003 =           3. bytes (ABS,CON)

      Value  Global                              Global Defined In Module
      -----  --------------------------------   ------------------------
ASxxxx Linker V03.00 + NoICE + sdld,  page 37.
Hexadecimal  [32-Bits]

Area                                    Addr        Size        Decimal Bytes (Attributes)
--------------------------------        ----        ----        ------- ----- ------------
_HEADER8                            00000000    0000000C =          12. bytes (ABS,CON)

      Value  Global                              Global Defined In Module
      -----  --------------------------------   ------------------------
ASxxxx Linker V03.00 + NoICE + sdld,  page 38.
Hexadecimal  [32-Bits]

Area                                    Addr        Size        Decimal Bytes (Attributes)
--------------------------------        ----        ----        ------- ----- ------------
_GSINIT                             00001D13    00000012 =          18. bytes (REL,CON)

      Value  Global                              Global Defined In Module
      -----  --------------------------------   ------------------------
     00001D13  gsinit                             crt0

ASxxxx Linker V03.00 + NoICE + sdld,  page 39.
Hexadecimal  [32-Bits]

Area                                    Addr        Size        Decimal Bytes (Attributes)
--------------------------------        ----        ----        ------- ----- ------------
_GSFINAL                            00001D25    00000001 =           1. bytes (REL,CON)

      Value  Global                              Global Defined In Module
      -----  --------------------------------   ------------------------
ASxxxx Linker V03.00 + NoICE + sdld,  page 40.
Hexadecimal  [32-Bits]

Area                                    Addr        Size        Decimal Bytes (Attributes)
--------------------------------        ----        ----        ------- ----- ------------
_DATA                               00008000    00000002 =           2. bytes (REL,CON)

      Value  Global                              Global Defined In Module
      -----  --------------------------------   ------------------------
     00008000  ___sdcc_heap_free                  malloc

ASxxxx Linker V03.00 + NoICE + sdld,  page 41.
Hexadecimal  [32-Bits]

Area                                    Addr        Size        Decimal Bytes (Attributes)
--------------------------------        ----        ----        ------- ----- ------------
_HEAP                               00008002    000003FF =        1023. bytes (REL,CON)

      Value  Global                              Global Defined In Module
      -----  --------------------------------   ------------------------
     00008002  ___sdcc_heap                       

ASxxxx Linker V03.00 + NoICE + sdld,  page 42.
Hexadecimal  [32-Bits]

Area                                    Addr        Size        Decimal Bytes (Attributes)
--------------------------------        ----        ----        ------- ----- ------------
_HEAP_END                           00008401    00000001 =           1. bytes (REL,CON)

      Value  Global                              Global Defined In Module
      -----  --------------------------------   ------------------------
     00008401  ___sdcc_heap_end                   

ASxxxx Linker V03.00 + NoICE + sdld,  page 43.

Files Linked                              [ module(s) ]

/usr/bin/../share/sdcc/lib/z80/crt0.rel   [ crt0 ]
/work/test_dataset_binaries/xor_z80_sdcc_O0.rel
                                          [ xor ]


Libraries Linked                          [ object file ]

/usr/bin/../share/sdcc/lib/z80/z80.lib    [ free.rel ]
/usr/bin/../share/sdcc/lib/z80/z80.lib    [ malloc.rel ]
/usr/bin/../share/sdcc/lib/z80/z80.lib    [ puts.rel ]
/usr/bin/../share/sdcc/lib/z80/z80.lib    [ vprintf.rel ]
/usr/bin/../share/sdcc/lib/z80/z80.lib    [ heap.rel ]
/usr/bin/../share/sdcc/lib/z80/z80.lib    [ strlen.rel ]
/usr/bin/../share/sdcc/lib/z80/z80.lib    [ modsigned.rel ]
/usr/bin/../share/sdcc/lib/z80/z80.lib    [ printf_large.rel ]
/usr/bin/../share/sdcc/lib/z80/z80.lib    [ divsigned.rel ]
/usr/bin/../share/sdcc/lib/z80/z80.lib    [ divunsigned.rel ]
/usr/bin/../share/sdcc/lib/z80/z80.lib    [ __sdcc_call_hl.rel ]

ASxxxx Linker V03.00 + NoICE + sdld,  page 44.

User Base Address Definitions

_CODE = 0x0200
_DATA = 0x8000


?ASlink-Warning-Undefined Global '_putchar' referenced by module 'puts'

?ASlink-Warning-Undefined Global '_putchar' referenced by module 'vprintf'
