ASxxxx Linker V03.00 + NoICE + sdld,  page 1.
Hexadecimal  [32-Bits]

Area                                    Addr        Size        Decimal Bytes (Attributes)
--------------------------------        ----        ----        ------- ----- ------------
.  .ABS.                            00000000    00000000 =           0. bytes (ABS,CON)

      Value  Global                              Global Defined In Module
      -----  --------------------------------   ------------------------
     00000000  .__.ABS.                           
     00000000  _putchar                        
     00000000  l__BSEG                         
     00000000  l__BSS                          
     00000000  l__CABS                         
     00000000  l__DABS                         
     00000000  l__DATA                         
     00000000  l__HEADER                       
     00000000  l__HEAP                         
     00000000  l__HOME                         
     00000000  l__INITIALIZED                  
     00000000  l__INITIALIZER                  
     00000000  s__CABS                         
     00000000  s__DABS                         
     00000000  s__HEADER                       
     00000000  s__HEADER0                      
     00000000  s__HEADER1                      
     00000000  s__HEADER2                      
     00000000  s__HEADER3                      
     00000000  s__HEADER4                      
     00000000  s__HEADER5                      
     00000000  s__HEADER6                      
     00000000  s__HEADER7                      
     00000000  s__HEADER8                      
     00000001  l__GSFINAL                      
     00000003  l__HEADER0                      
     00000003  l__HEADER2                      
     00000003  l__HEADER3                      
     00000003  l__HEADER4                      
     00000003  l__HEADER5                      
     00000003  l__HEADER6                      
     00000003  l__HEADER7                      
     00000004  l__HEADER1                      
     0000000C  l__HEADER8                      
     0000000F  l__GSINIT                       
     00000200  s__CODE                         
     000015BA  l__CODE                         
     000017BA  s__GSINIT                       
     000017BA  s__HOME                         
     000017BA  s__INITIALIZER                  
     000017C9  s__GSFINAL                      
     00008000  s__BSEG                         
     00008000  s__BSS                          
     00008000  s__DATA                         
     00008000  s__HEAP                         
     00008000  s__INITIALIZED                  

ASxxxx Linker V03.00 + NoICE + sdld,  page 2.
Hexadecimal  [32-Bits]

Area                                    Addr        Size        Decimal Bytes (Attributes)
--------------------------------        ----        ----        ------- ----- ------------
_CODE                               00000200    000015BA =        5562. bytes (REL,CON)

      Value  Global                              Global Defined In Module
      -----  --------------------------------   ------------------------
     00000200  __clock                            crt0
     00000204  _exit                              crt0
     0000020A  A$aes128_z80_sdcc_Osries/aes128_   aes128
     0000020A  C$aes128.c$38$0_0$35               aes128
     0000020A  Faes128$xtime$0$0                  aes128
     0000020D  A$aes128_z80_sdcc_Osries/aes128_   aes128
     0000020D  C$aes128.c$39$1_0$35               aes128
     00000210  A$aes128_z80_sdcc_Osries/aes128_   aes128
     00000211  A$aes128_z80_sdcc_Osries/aes128_   aes128
     00000212  A$aes128_z80_sdcc_Osries/aes128_   aes128
     00000215  A$aes128_z80_sdcc_Osries/aes128_   aes128
     00000217  A$aes128_z80_sdcc_Osries/aes128_   aes128
     00000219  A$aes128_z80_sdcc_Osries/aes128_   aes128
     0000021A  A$aes128_z80_sdcc_Osries/aes128_   aes128
     0000021C  A$aes128_z80_sdcc_Osries/aes128_   aes128
     0000021D  A$aes128_z80_sdcc_Osries/aes128_   aes128
     0000021E  A$aes128_z80_sdcc_Osries/aes128_   aes128
     0000021F  A$aes128_z80_sdcc_Osries/aes128_   aes128
     00000220  A$aes128_z80_sdcc_Osries/aes128_   aes128
     00000221  A$aes128_z80_sdcc_Osries/aes128_   aes128
     00000222  A$aes128_z80_sdcc_Osries/aes128_   aes128
     00000223  A$aes128_z80_sdcc_Osries/aes128_   aes128
     00000224  A$aes128_z80_sdcc_Osries/aes128_   aes128
     00000225  A$aes128_z80_sdcc_Osries/aes128_   aes128
     00000226  A$aes128_z80_sdcc_Osries/aes128_   aes128
     00000227  A$aes128_z80_sdcc_Osries/aes128_   aes128
     00000228  A$aes128_z80_sdcc_Osries/aes128_   aes128
     00000229  A$aes128_z80_sdcc_Osries/aes128_   aes128
     0000022A  A$aes128_z80_sdcc_Osries/aes128_   aes128
     0000022B  A$aes128_z80_sdcc_Osries/aes128_   aes128
     0000022C  A$aes128_z80_sdcc_Osries/aes128_   aes128
     0000022D  A$aes128_z80_sdcc_Osries/aes128_   aes128
     0000022E  A$aes128_z80_sdcc_Osries/aes128_   aes128
     00000230  A$aes128_z80_sdcc_Osries/aes128_   aes128
     00000230  C$aes128.c$40$1_0$35               aes128
     00000230  XFaes128$xtime$0$0                 aes128
     00000231  Faes128$sbox$0_0$0                 aes128
     00000331  Faes128$rcon$0_0$0                 aes128
     0000033C  A$aes128_z80_sdcc_Osries/aes128_   aes128
     0000033C  C$aes128.c$42$1_0$38               aes128
     0000033C  Faes128$sub_bytes$0$0              aes128
     0000033F  A$aes128_z80_sdcc_Osries/aes128_   aes128
     0000033F  C$aes128.c$43$3_0$39               aes128
     00000342  A$aes128_z80_sdcc_Osries/aes128_   aes128
     00000343  A$aes128_z80_sdcc_Osries/aes128_   aes128
     00000345  A$aes128_z80_sdcc_Osries/aes128_   aes128
     00000346  A$aes128_z80_sdcc_Osries/aes128_   aes128
     00000347  A$aes128_z80_sdcc_Osries/aes128_   aes128
     00000348  A$aes128_z80_sdcc_Osries/aes128_   aes128
     00000349  A$aes128_z80_sdcc_Osries/aes128_   aes128
ASxxxx Linker V03.00 + NoICE + sdld,  page 3.
Hexadecimal  [32-Bits]

Area                                    Addr        Size        Decimal Bytes (Attributes)
--------------------------------        ----        ----        ------- ----- ------------
_CODE                               00000200    000015BA =        5562. bytes (REL,CON)

      Value  Global                              Global Defined In Module
      -----  --------------------------------   ------------------------
     0000034B  A$aes128_z80_sdcc_Osries/aes128_   aes128
     0000034D  A$aes128_z80_sdcc_Osries/aes128_   aes128
     0000034D  C$aes128.c$44$3_0$39               aes128
     00000350  A$aes128_z80_sdcc_Osries/aes128_   aes128
     00000351  A$aes128_z80_sdcc_Osries/aes128_   aes128
     00000352  A$aes128_z80_sdcc_Osries/aes128_   aes128
     00000355  A$aes128_z80_sdcc_Osries/aes128_   aes128
     00000356  A$aes128_z80_sdcc_Osries/aes128_   aes128
     00000357  A$aes128_z80_sdcc_Osries/aes128_   aes128
     00000358  A$aes128_z80_sdcc_Osries/aes128_   aes128
     0000035A  A$aes128_z80_sdcc_Osries/aes128_   aes128
     0000035B  A$aes128_z80_sdcc_Osries/aes128_   aes128
     0000035D  A$aes128_z80_sdcc_Osries/aes128_   aes128
     0000035F  A$aes128_z80_sdcc_Osries/aes128_   aes128
     00000360  A$aes128_z80_sdcc_Osries/aes128_   aes128
     00000361  A$aes128_z80_sdcc_Osries/aes128_   aes128
     00000362  A$aes128_z80_sdcc_Osries/aes128_   aes128
     00000362  C$aes128.c$43$2_0$38               aes128
     00000363  A$aes128_z80_sdcc_Osries/aes128_   aes128
     00000365  A$aes128_z80_sdcc_Osries/aes128_   aes128
     00000367  A$aes128_z80_sdcc_Osries/aes128_   aes128
     00000367  C$aes128.c$46$2_0$38               aes128
     00000367  XFaes128$sub_bytes$0$0             aes128
     00000368  A$aes128_z80_sdcc_Osries/aes128_   aes128
     00000368  C$aes128.c$48$2_0$41               aes128
     00000368  Faes128$shift_rows$0$0             aes128
     0000036B  A$aes128_z80_sdcc_Osries/aes128_   aes128
     0000036C  A$aes128_z80_sdcc_Osries/aes128_   aes128
     0000036C  C$aes128.c$51$1_0$41               aes128
     0000036F  A$aes128_z80_sdcc_Osries/aes128_   aes128
     00000372  A$aes128_z80_sdcc_Osries/aes128_   aes128
     00000373  A$aes128_z80_sdcc_Osries/aes128_   aes128
     00000374  A$aes128_z80_sdcc_Osries/aes128_   aes128
     00000377  A$aes128_z80_sdcc_Osries/aes128_   aes128
     00000377  C$aes128.c$52$1_0$41               aes128
     0000037A  A$aes128_z80_sdcc_Osries/aes128_   aes128
     0000037C  A$aes128_z80_sdcc_Osries/aes128_   aes128
     0000037D  A$aes128_z80_sdcc_Osries/aes128_   aes128
     00000380  A$aes128_z80_sdcc_Osries/aes128_   aes128
     00000382  A$aes128_z80_sdcc_Osries/aes128_   aes128
     00000383  A$aes128_z80_sdcc_Osries/aes128_   aes128
     00000384  A$aes128_z80_sdcc_Osries/aes128_   aes128
     00000385  A$aes128_z80_sdcc_Osries/aes128_   aes128
     00000385  C$aes128.c$53$1_0$41               aes128
     00000388  A$aes128_z80_sdcc_Osries/aes128_   aes128
     0000038A  A$aes128_z80_sdcc_Osries/aes128_   aes128
     0000038B  A$aes128_z80_sdcc_Osries/aes128_   aes128
     0000038E  A$aes128_z80_sdcc_Osries/aes128_   aes128
     00000390  A$aes128_z80_sdcc_Osries/aes128_   aes128
     00000391  A$aes128_z80_sdcc_Osries/aes128_   aes128
     00000392  A$aes128_z80_sdcc_Osries/aes128_   aes128
ASxxxx Linker V03.00 + NoICE + sdld,  page 4.
Hexadecimal  [32-Bits]

Area                                    Addr        Size        Decimal Bytes (Attributes)
--------------------------------        ----        ----        ------- ----- ------------
_CODE                               00000200    000015BA =        5562. bytes (REL,CON)

      Value  Global                              Global Defined In Module
      -----  --------------------------------   ------------------------
     00000393  A$aes128_z80_sdcc_Osries/aes128_   aes128
     00000393  C$aes128.c$54$1_0$41               aes128
     00000396  A$aes128_z80_sdcc_Osries/aes128_   aes128
     00000398  A$aes128_z80_sdcc_Osries/aes128_   aes128
     00000399  A$aes128_z80_sdcc_Osries/aes128_   aes128
     0000039C  A$aes128_z80_sdcc_Osries/aes128_   aes128
     0000039E  A$aes128_z80_sdcc_Osries/aes128_   aes128
     0000039F  A$aes128_z80_sdcc_Osries/aes128_   aes128
     000003A0  A$aes128_z80_sdcc_Osries/aes128_   aes128
     000003A1  A$aes128_z80_sdcc_Osries/aes128_   aes128
     000003A1  C$aes128.c$55$1_0$41               aes128
     000003A4  A$aes128_z80_sdcc_Osries/aes128_   aes128
     000003A5  A$aes128_z80_sdcc_Osries/aes128_   aes128
     000003A5  C$aes128.c$57$1_0$41               aes128
     000003A8  A$aes128_z80_sdcc_Osries/aes128_   aes128
     000003AB  A$aes128_z80_sdcc_Osries/aes128_   aes128
     000003AC  A$aes128_z80_sdcc_Osries/aes128_   aes128
     000003AD  A$aes128_z80_sdcc_Osries/aes128_   aes128
     000003AE  A$aes128_z80_sdcc_Osries/aes128_   aes128
     000003B1  A$aes128_z80_sdcc_Osries/aes128_   aes128
     000003B1  C$aes128.c$58$1_0$41               aes128
     000003B4  A$aes128_z80_sdcc_Osries/aes128_   aes128
     000003B6  A$aes128_z80_sdcc_Osries/aes128_   aes128
     000003B7  A$aes128_z80_sdcc_Osries/aes128_   aes128
     000003BA  A$aes128_z80_sdcc_Osries/aes128_   aes128
     000003BC  A$aes128_z80_sdcc_Osries/aes128_   aes128
     000003BD  A$aes128_z80_sdcc_Osries/aes128_   aes128
     000003BE  A$aes128_z80_sdcc_Osries/aes128_   aes128
     000003BF  A$aes128_z80_sdcc_Osries/aes128_   aes128
     000003BF  C$aes128.c$59$1_0$41               aes128
     000003C2  A$aes128_z80_sdcc_Osries/aes128_   aes128
     000003C3  A$aes128_z80_sdcc_Osries/aes128_   aes128
     000003C3  C$aes128.c$60$1_0$41               aes128
     000003C6  A$aes128_z80_sdcc_Osries/aes128_   aes128
     000003C8  A$aes128_z80_sdcc_Osries/aes128_   aes128
     000003C9  A$aes128_z80_sdcc_Osries/aes128_   aes128
     000003CC  A$aes128_z80_sdcc_Osries/aes128_   aes128
     000003CE  A$aes128_z80_sdcc_Osries/aes128_   aes128
     000003CF  A$aes128_z80_sdcc_Osries/aes128_   aes128
     000003D0  A$aes128_z80_sdcc_Osries/aes128_   aes128
     000003D3  A$aes128_z80_sdcc_Osries/aes128_   aes128
     000003D3  C$aes128.c$61$1_0$41               aes128
     000003D6  A$aes128_z80_sdcc_Osries/aes128_   aes128
     000003D8  A$aes128_z80_sdcc_Osries/aes128_   aes128
     000003D9  A$aes128_z80_sdcc_Osries/aes128_   aes128
     000003DC  A$aes128_z80_sdcc_Osries/aes128_   aes128
     000003DE  A$aes128_z80_sdcc_Osries/aes128_   aes128
     000003DF  A$aes128_z80_sdcc_Osries/aes128_   aes128
     000003E0  A$aes128_z80_sdcc_Osries/aes128_   aes128
     000003E1  A$aes128_z80_sdcc_Osries/aes128_   aes128
     000003E1  C$aes128.c$62$1_0$41               aes128
ASxxxx Linker V03.00 + NoICE + sdld,  page 5.
Hexadecimal  [32-Bits]

Area                                    Addr        Size        Decimal Bytes (Attributes)
--------------------------------        ----        ----        ------- ----- ------------
_CODE                               00000200    000015BA =        5562. bytes (REL,CON)

      Value  Global                              Global Defined In Module
      -----  --------------------------------   ------------------------
     000003E4  A$aes128_z80_sdcc_Osries/aes128_   aes128
     000003E5  A$aes128_z80_sdcc_Osries/aes128_   aes128
     000003E5  C$aes128.c$64$1_0$41               aes128
     000003E8  A$aes128_z80_sdcc_Osries/aes128_   aes128
     000003EA  A$aes128_z80_sdcc_Osries/aes128_   aes128
     000003EB  A$aes128_z80_sdcc_Osries/aes128_   aes128
     000003EE  A$aes128_z80_sdcc_Osries/aes128_   aes128
     000003F0  A$aes128_z80_sdcc_Osries/aes128_   aes128
     000003F1  A$aes128_z80_sdcc_Osries/aes128_   aes128
     000003F2  A$aes128_z80_sdcc_Osries/aes128_   aes128
     000003F5  A$aes128_z80_sdcc_Osries/aes128_   aes128
     000003F5  C$aes128.c$65$1_0$41               aes128
     000003F8  A$aes128_z80_sdcc_Osries/aes128_   aes128
     000003FA  A$aes128_z80_sdcc_Osries/aes128_   aes128
     000003FB  A$aes128_z80_sdcc_Osries/aes128_   aes128
     000003FE  A$aes128_z80_sdcc_Osries/aes128_   aes128
     00000400  A$aes128_z80_sdcc_Osries/aes128_   aes128
     00000401  A$aes128_z80_sdcc_Osries/aes128_   aes128
     00000402  A$aes128_z80_sdcc_Osries/aes128_   aes128
     00000403  A$aes128_z80_sdcc_Osries/aes128_   aes128
     00000403  C$aes128.c$66$1_0$41               aes128
     00000406  A$aes128_z80_sdcc_Osries/aes128_   aes128
     00000408  A$aes128_z80_sdcc_Osries/aes128_   aes128
     00000409  A$aes128_z80_sdcc_Osries/aes128_   aes128
     0000040C  A$aes128_z80_sdcc_Osries/aes128_   aes128
     0000040E  A$aes128_z80_sdcc_Osries/aes128_   aes128
     0000040F  A$aes128_z80_sdcc_Osries/aes128_   aes128
     00000410  A$aes128_z80_sdcc_Osries/aes128_   aes128
     00000411  A$aes128_z80_sdcc_Osries/aes128_   aes128
     00000411  C$aes128.c$67$1_0$41               aes128
     00000414  A$aes128_z80_sdcc_Osries/aes128_   aes128
     00000417  A$aes128_z80_sdcc_Osries/aes128_   aes128
     00000418  A$aes128_z80_sdcc_Osries/aes128_   aes128
     00000419  A$aes128_z80_sdcc_Osries/aes128_   aes128
     0000041A  A$aes128_z80_sdcc_Osries/aes128_   aes128
     0000041B  A$aes128_z80_sdcc_Osries/aes128_   aes128
     0000041C  A$aes128_z80_sdcc_Osries/aes128_   aes128
     0000041C  C$aes128.c$68$1_0$41               aes128
     0000041F  A$aes128_z80_sdcc_Osries/aes128_   aes128
     00000420  A$aes128_z80_sdcc_Osries/aes128_   aes128
     00000421  A$aes128_z80_sdcc_Osries/aes128_   aes128
     00000423  A$aes128_z80_sdcc_Osries/aes128_   aes128
     00000423  C$aes128.c$69$1_0$41               aes128
     00000423  XFaes128$shift_rows$0$0            aes128
     00000424  A$aes128_z80_sdcc_Osries/aes128_   aes128
     00000424  C$aes128.c$71$1_0$43               aes128
     00000424  Faes128$mix_columns$0$0            aes128
     00000427  A$aes128_z80_sdcc_Osries/aes128_   aes128
     0000042A  A$aes128_z80_sdcc_Osries/aes128_   aes128
     0000042B  A$aes128_z80_sdcc_Osries/aes128_   aes128
     0000042C  A$aes128_z80_sdcc_Osries/aes128_   aes128
ASxxxx Linker V03.00 + NoICE + sdld,  page 6.
Hexadecimal  [32-Bits]

Area                                    Addr        Size        Decimal Bytes (Attributes)
--------------------------------        ----        ----        ------- ----- ------------
_CODE                               00000200    000015BA =        5562. bytes (REL,CON)

      Value  Global                              Global Defined In Module
      -----  --------------------------------   ------------------------
     0000042C  C$aes128.c$74$3_0$45               aes128
     0000042F  A$aes128_z80_sdcc_Osries/aes128_   aes128
     00000430  A$aes128_z80_sdcc_Osries/aes128_   aes128
     00000433  A$aes128_z80_sdcc_Osries/aes128_   aes128
     00000436  A$aes128_z80_sdcc_Osries/aes128_   aes128
     00000439  A$aes128_z80_sdcc_Osries/aes128_   aes128
     0000043A  A$aes128_z80_sdcc_Osries/aes128_   aes128
     0000043C  A$aes128_z80_sdcc_Osries/aes128_   aes128
     0000043D  A$aes128_z80_sdcc_Osries/aes128_   aes128
     0000043E  A$aes128_z80_sdcc_Osries/aes128_   aes128
     0000043F  A$aes128_z80_sdcc_Osries/aes128_   aes128
     00000440  A$aes128_z80_sdcc_Osries/aes128_   aes128
     00000442  A$aes128_z80_sdcc_Osries/aes128_   aes128
     00000445  A$aes128_z80_sdcc_Osries/aes128_   aes128
     00000445  C$aes128.c$75$3_0$45               aes128
     00000446  A$aes128_z80_sdcc_Osries/aes128_   aes128
     00000447  A$aes128_z80_sdcc_Osries/aes128_   aes128
     00000449  A$aes128_z80_sdcc_Osries/aes128_   aes128
     0000044B  A$aes128_z80_sdcc_Osries/aes128_   aes128
     0000044D  A$aes128_z80_sdcc_Osries/aes128_   aes128
     0000044F  A$aes128_z80_sdcc_Osries/aes128_   aes128
     0000044F  C$aes128.c$76$3_0$45               aes128
     00000452  A$aes128_z80_sdcc_Osries/aes128_   aes128
     00000453  A$aes128_z80_sdcc_Osries/aes128_   aes128
     00000454  A$aes128_z80_sdcc_Osries/aes128_   aes128
     00000455  A$aes128_z80_sdcc_Osries/aes128_   aes128
     00000456  A$aes128_z80_sdcc_Osries/aes128_   aes128
     00000457  A$aes128_z80_sdcc_Osries/aes128_   aes128
     00000458  A$aes128_z80_sdcc_Osries/aes128_   aes128
     0000045B  A$aes128_z80_sdcc_Osries/aes128_   aes128
     0000045E  A$aes128_z80_sdcc_Osries/aes128_   aes128
     0000045F  A$aes128_z80_sdcc_Osries/aes128_   aes128
     00000462  A$aes128_z80_sdcc_Osries/aes128_   aes128
     00000465  A$aes128_z80_sdcc_Osries/aes128_   aes128
     00000468  A$aes128_z80_sdcc_Osries/aes128_   aes128
     00000469  A$aes128_z80_sdcc_Osries/aes128_   aes128
     0000046C  A$aes128_z80_sdcc_Osries/aes128_   aes128
     0000046F  A$aes128_z80_sdcc_Osries/aes128_   aes128
     00000470  A$aes128_z80_sdcc_Osries/aes128_   aes128
     00000473  A$aes128_z80_sdcc_Osries/aes128_   aes128
     00000476  A$aes128_z80_sdcc_Osries/aes128_   aes128
     00000479  A$aes128_z80_sdcc_Osries/aes128_   aes128
     0000047A  A$aes128_z80_sdcc_Osries/aes128_   aes128
     0000047B  A$aes128_z80_sdcc_Osries/aes128_   aes128
     0000047C  A$aes128_z80_sdcc_Osries/aes128_   aes128
     0000047D  A$aes128_z80_sdcc_Osries/aes128_   aes128
     0000047E  A$aes128_z80_sdcc_Osries/aes128_   aes128
     00000481  A$aes128_z80_sdcc_Osries/aes128_   aes128
     00000482  A$aes128_z80_sdcc_Osries/aes128_   aes128
     00000485  A$aes128_z80_sdcc_Osries/aes128_   aes128
     00000486  A$aes128_z80_sdcc_Osries/aes128_   aes128
ASxxxx Linker V03.00 + NoICE + sdld,  page 7.
Hexadecimal  [32-Bits]

Area                                    Addr        Size        Decimal Bytes (Attributes)
--------------------------------        ----        ----        ------- ----- ------------
_CODE                               00000200    000015BA =        5562. bytes (REL,CON)

      Value  Global                              Global Defined In Module
      -----  --------------------------------   ------------------------
     00000487  A$aes128_z80_sdcc_Osries/aes128_   aes128
     0000048A  A$aes128_z80_sdcc_Osries/aes128_   aes128
     0000048B  A$aes128_z80_sdcc_Osries/aes128_   aes128
     0000048E  A$aes128_z80_sdcc_Osries/aes128_   aes128
     00000491  A$aes128_z80_sdcc_Osries/aes128_   aes128
     00000494  A$aes128_z80_sdcc_Osries/aes128_   aes128
     00000497  A$aes128_z80_sdcc_Osries/aes128_   aes128
     0000049A  A$aes128_z80_sdcc_Osries/aes128_   aes128
     0000049D  A$aes128_z80_sdcc_Osries/aes128_   aes128
     000004A0  A$aes128_z80_sdcc_Osries/aes128_   aes128
     000004A3  A$aes128_z80_sdcc_Osries/aes128_   aes128
     000004A6  A$aes128_z80_sdcc_Osries/aes128_   aes128
     000004A9  A$aes128_z80_sdcc_Osries/aes128_   aes128
     000004AA  A$aes128_z80_sdcc_Osries/aes128_   aes128
     000004AB  A$aes128_z80_sdcc_Osries/aes128_   aes128
     000004AC  A$aes128_z80_sdcc_Osries/aes128_   aes128
     000004AD  A$aes128_z80_sdcc_Osries/aes128_   aes128
     000004AE  A$aes128_z80_sdcc_Osries/aes128_   aes128
     000004B1  A$aes128_z80_sdcc_Osries/aes128_   aes128
     000004B2  A$aes128_z80_sdcc_Osries/aes128_   aes128
     000004B3  A$aes128_z80_sdcc_Osries/aes128_   aes128
     000004B4  A$aes128_z80_sdcc_Osries/aes128_   aes128
     000004B5  A$aes128_z80_sdcc_Osries/aes128_   aes128
     000004B8  A$aes128_z80_sdcc_Osries/aes128_   aes128
     000004BB  A$aes128_z80_sdcc_Osries/aes128_   aes128
     000004BE  A$aes128_z80_sdcc_Osries/aes128_   aes128
     000004BF  A$aes128_z80_sdcc_Osries/aes128_   aes128
     000004C0  A$aes128_z80_sdcc_Osries/aes128_   aes128
     000004C3  A$aes128_z80_sdcc_Osries/aes128_   aes128
     000004C6  A$aes128_z80_sdcc_Osries/aes128_   aes128
     000004C7  A$aes128_z80_sdcc_Osries/aes128_   aes128
     000004CA  A$aes128_z80_sdcc_Osries/aes128_   aes128
     000004CD  A$aes128_z80_sdcc_Osries/aes128_   aes128
     000004D0  A$aes128_z80_sdcc_Osries/aes128_   aes128
     000004D3  A$aes128_z80_sdcc_Osries/aes128_   aes128
     000004D6  A$aes128_z80_sdcc_Osries/aes128_   aes128
     000004D9  A$aes128_z80_sdcc_Osries/aes128_   aes128
     000004DC  A$aes128_z80_sdcc_Osries/aes128_   aes128
     000004DF  A$aes128_z80_sdcc_Osries/aes128_   aes128
     000004E2  A$aes128_z80_sdcc_Osries/aes128_   aes128
     000004E5  A$aes128_z80_sdcc_Osries/aes128_   aes128
     000004E6  A$aes128_z80_sdcc_Osries/aes128_   aes128
     000004E9  A$aes128_z80_sdcc_Osries/aes128_   aes128
     000004EC  A$aes128_z80_sdcc_Osries/aes128_   aes128
     000004ED  A$aes128_z80_sdcc_Osries/aes128_   aes128
     000004EE  A$aes128_z80_sdcc_Osries/aes128_   aes128
     000004EF  A$aes128_z80_sdcc_Osries/aes128_   aes128
     000004F0  A$aes128_z80_sdcc_Osries/aes128_   aes128
     000004F3  A$aes128_z80_sdcc_Osries/aes128_   aes128
     000004F6  A$aes128_z80_sdcc_Osries/aes128_   aes128
     000004F7  A$aes128_z80_sdcc_Osries/aes128_   aes128
ASxxxx Linker V03.00 + NoICE + sdld,  page 8.
Hexadecimal  [32-Bits]

Area                                    Addr        Size        Decimal Bytes (Attributes)
--------------------------------        ----        ----        ------- ----- ------------
_CODE                               00000200    000015BA =        5562. bytes (REL,CON)

      Value  Global                              Global Defined In Module
      -----  --------------------------------   ------------------------
     000004FA  A$aes128_z80_sdcc_Osries/aes128_   aes128
     000004FD  A$aes128_z80_sdcc_Osries/aes128_   aes128
     00000500  A$aes128_z80_sdcc_Osries/aes128_   aes128
     00000503  A$aes128_z80_sdcc_Osries/aes128_   aes128
     00000504  A$aes128_z80_sdcc_Osries/aes128_   aes128
     00000507  A$aes128_z80_sdcc_Osries/aes128_   aes128
     00000508  A$aes128_z80_sdcc_Osries/aes128_   aes128
     00000509  A$aes128_z80_sdcc_Osries/aes128_   aes128
     0000050A  A$aes128_z80_sdcc_Osries/aes128_   aes128
     0000050A  C$aes128.c$77$3_0$45               aes128
     0000050D  A$aes128_z80_sdcc_Osries/aes128_   aes128
     0000050E  A$aes128_z80_sdcc_Osries/aes128_   aes128
     0000050F  A$aes128_z80_sdcc_Osries/aes128_   aes128
     00000510  A$aes128_z80_sdcc_Osries/aes128_   aes128
     00000511  A$aes128_z80_sdcc_Osries/aes128_   aes128
     00000512  A$aes128_z80_sdcc_Osries/aes128_   aes128
     00000513  A$aes128_z80_sdcc_Osries/aes128_   aes128
     00000516  A$aes128_z80_sdcc_Osries/aes128_   aes128
     00000517  A$aes128_z80_sdcc_Osries/aes128_   aes128
     00000518  A$aes128_z80_sdcc_Osries/aes128_   aes128
     0000051B  A$aes128_z80_sdcc_Osries/aes128_   aes128
     0000051C  A$aes128_z80_sdcc_Osries/aes128_   aes128
     0000051F  A$aes128_z80_sdcc_Osries/aes128_   aes128
     00000522  A$aes128_z80_sdcc_Osries/aes128_   aes128
     00000523  A$aes128_z80_sdcc_Osries/aes128_   aes128
     00000526  A$aes128_z80_sdcc_Osries/aes128_   aes128
     00000529  A$aes128_z80_sdcc_Osries/aes128_   aes128
     0000052C  A$aes128_z80_sdcc_Osries/aes128_   aes128
     0000052D  A$aes128_z80_sdcc_Osries/aes128_   aes128
     0000052E  A$aes128_z80_sdcc_Osries/aes128_   aes128
     0000052F  A$aes128_z80_sdcc_Osries/aes128_   aes128
     00000530  A$aes128_z80_sdcc_Osries/aes128_   aes128
     00000531  A$aes128_z80_sdcc_Osries/aes128_   aes128
     00000534  A$aes128_z80_sdcc_Osries/aes128_   aes128
     00000535  A$aes128_z80_sdcc_Osries/aes128_   aes128
     00000536  A$aes128_z80_sdcc_Osries/aes128_   aes128
     00000537  A$aes128_z80_sdcc_Osries/aes128_   aes128
     00000538  A$aes128_z80_sdcc_Osries/aes128_   aes128
     0000053B  A$aes128_z80_sdcc_Osries/aes128_   aes128
     0000053E  A$aes128_z80_sdcc_Osries/aes128_   aes128
     00000541  A$aes128_z80_sdcc_Osries/aes128_   aes128
     00000544  A$aes128_z80_sdcc_Osries/aes128_   aes128
     00000545  A$aes128_z80_sdcc_Osries/aes128_   aes128
     00000546  A$aes128_z80_sdcc_Osries/aes128_   aes128
     00000547  A$aes128_z80_sdcc_Osries/aes128_   aes128
     00000548  A$aes128_z80_sdcc_Osries/aes128_   aes128
     00000549  A$aes128_z80_sdcc_Osries/aes128_   aes128
     0000054C  A$aes128_z80_sdcc_Osries/aes128_   aes128
     0000054D  A$aes128_z80_sdcc_Osries/aes128_   aes128
     0000054E  A$aes128_z80_sdcc_Osries/aes128_   aes128
     0000054F  A$aes128_z80_sdcc_Osries/aes128_   aes128
ASxxxx Linker V03.00 + NoICE + sdld,  page 9.
Hexadecimal  [32-Bits]

Area                                    Addr        Size        Decimal Bytes (Attributes)
--------------------------------        ----        ----        ------- ----- ------------
_CODE                               00000200    000015BA =        5562. bytes (REL,CON)

      Value  Global                              Global Defined In Module
      -----  --------------------------------   ------------------------
     00000550  A$aes128_z80_sdcc_Osries/aes128_   aes128
     00000553  A$aes128_z80_sdcc_Osries/aes128_   aes128
     00000556  A$aes128_z80_sdcc_Osries/aes128_   aes128
     00000559  A$aes128_z80_sdcc_Osries/aes128_   aes128
     0000055A  A$aes128_z80_sdcc_Osries/aes128_   aes128
     0000055B  A$aes128_z80_sdcc_Osries/aes128_   aes128
     0000055E  A$aes128_z80_sdcc_Osries/aes128_   aes128
     00000561  A$aes128_z80_sdcc_Osries/aes128_   aes128
     00000562  A$aes128_z80_sdcc_Osries/aes128_   aes128
     00000563  A$aes128_z80_sdcc_Osries/aes128_   aes128
     00000564  A$aes128_z80_sdcc_Osries/aes128_   aes128
     00000564  C$aes128.c$78$3_0$45               aes128
     00000567  A$aes128_z80_sdcc_Osries/aes128_   aes128
     00000568  A$aes128_z80_sdcc_Osries/aes128_   aes128
     00000569  A$aes128_z80_sdcc_Osries/aes128_   aes128
     0000056A  A$aes128_z80_sdcc_Osries/aes128_   aes128
     0000056B  A$aes128_z80_sdcc_Osries/aes128_   aes128
     0000056C  A$aes128_z80_sdcc_Osries/aes128_   aes128
     0000056D  A$aes128_z80_sdcc_Osries/aes128_   aes128
     0000056E  A$aes128_z80_sdcc_Osries/aes128_   aes128
     00000571  A$aes128_z80_sdcc_Osries/aes128_   aes128
     00000572  A$aes128_z80_sdcc_Osries/aes128_   aes128
     00000573  A$aes128_z80_sdcc_Osries/aes128_   aes128
     00000576  A$aes128_z80_sdcc_Osries/aes128_   aes128
     00000577  A$aes128_z80_sdcc_Osries/aes128_   aes128
     0000057A  A$aes128_z80_sdcc_Osries/aes128_   aes128
     0000057D  A$aes128_z80_sdcc_Osries/aes128_   aes128
     0000057E  A$aes128_z80_sdcc_Osries/aes128_   aes128
     00000581  A$aes128_z80_sdcc_Osries/aes128_   aes128
     00000584  A$aes128_z80_sdcc_Osries/aes128_   aes128
     00000585  A$aes128_z80_sdcc_Osries/aes128_   aes128
     00000586  A$aes128_z80_sdcc_Osries/aes128_   aes128
     00000589  A$aes128_z80_sdcc_Osries/aes128_   aes128
     0000058C  A$aes128_z80_sdcc_Osries/aes128_   aes128
     0000058F  A$aes128_z80_sdcc_Osries/aes128_   aes128
     00000590  A$aes128_z80_sdcc_Osries/aes128_   aes128
     00000591  A$aes128_z80_sdcc_Osries/aes128_   aes128
     00000592  A$aes128_z80_sdcc_Osries/aes128_   aes128
     00000593  A$aes128_z80_sdcc_Osries/aes128_   aes128
     00000594  A$aes128_z80_sdcc_Osries/aes128_   aes128
     00000597  A$aes128_z80_sdcc_Osries/aes128_   aes128
     00000598  A$aes128_z80_sdcc_Osries/aes128_   aes128
     00000599  A$aes128_z80_sdcc_Osries/aes128_   aes128
     0000059A  A$aes128_z80_sdcc_Osries/aes128_   aes128
     0000059B  A$aes128_z80_sdcc_Osries/aes128_   aes128
     0000059E  A$aes128_z80_sdcc_Osries/aes128_   aes128
     000005A1  A$aes128_z80_sdcc_Osries/aes128_   aes128
     000005A4  A$aes128_z80_sdcc_Osries/aes128_   aes128
     000005A7  A$aes128_z80_sdcc_Osries/aes128_   aes128
     000005A8  A$aes128_z80_sdcc_Osries/aes128_   aes128
     000005A9  A$aes128_z80_sdcc_Osries/aes128_   aes128
ASxxxx Linker V03.00 + NoICE + sdld,  page 10.
Hexadecimal  [32-Bits]

Area                                    Addr        Size        Decimal Bytes (Attributes)
--------------------------------        ----        ----        ------- ----- ------------
_CODE                               00000200    000015BA =        5562. bytes (REL,CON)

      Value  Global                              Global Defined In Module
      -----  --------------------------------   ------------------------
     000005AA  A$aes128_z80_sdcc_Osries/aes128_   aes128
     000005AB  A$aes128_z80_sdcc_Osries/aes128_   aes128
     000005AC  A$aes128_z80_sdcc_Osries/aes128_   aes128
     000005AF  A$aes128_z80_sdcc_Osries/aes128_   aes128
     000005B0  A$aes128_z80_sdcc_Osries/aes128_   aes128
     000005B1  A$aes128_z80_sdcc_Osries/aes128_   aes128
     000005B2  A$aes128_z80_sdcc_Osries/aes128_   aes128
     000005B3  A$aes128_z80_sdcc_Osries/aes128_   aes128
     000005B6  A$aes128_z80_sdcc_Osries/aes128_   aes128
     000005B9  A$aes128_z80_sdcc_Osries/aes128_   aes128
     000005BC  A$aes128_z80_sdcc_Osries/aes128_   aes128
     000005BD  A$aes128_z80_sdcc_Osries/aes128_   aes128
     000005BE  A$aes128_z80_sdcc_Osries/aes128_   aes128
     000005BF  A$aes128_z80_sdcc_Osries/aes128_   aes128
     000005BF  C$aes128.c$79$3_0$45               aes128
     000005C2  A$aes128_z80_sdcc_Osries/aes128_   aes128
     000005C3  A$aes128_z80_sdcc_Osries/aes128_   aes128
     000005C4  A$aes128_z80_sdcc_Osries/aes128_   aes128
     000005C5  A$aes128_z80_sdcc_Osries/aes128_   aes128
     000005C6  A$aes128_z80_sdcc_Osries/aes128_   aes128
     000005C7  A$aes128_z80_sdcc_Osries/aes128_   aes128
     000005C8  A$aes128_z80_sdcc_Osries/aes128_   aes128
     000005C9  A$aes128_z80_sdcc_Osries/aes128_   aes128
     000005CA  A$aes128_z80_sdcc_Osries/aes128_   aes128
     000005CD  A$aes128_z80_sdcc_Osries/aes128_   aes128
     000005CE  A$aes128_z80_sdcc_Osries/aes128_   aes128
     000005CF  A$aes128_z80_sdcc_Osries/aes128_   aes128
     000005D2  A$aes128_z80_sdcc_Osries/aes128_   aes128
     000005D3  A$aes128_z80_sdcc_Osries/aes128_   aes128
     000005D6  A$aes128_z80_sdcc_Osries/aes128_   aes128
     000005D9  A$aes128_z80_sdcc_Osries/aes128_   aes128
     000005DA  A$aes128_z80_sdcc_Osries/aes128_   aes128
     000005DB  A$aes128_z80_sdcc_Osries/aes128_   aes128
     000005DC  A$aes128_z80_sdcc_Osries/aes128_   aes128
     000005DD  A$aes128_z80_sdcc_Osries/aes128_   aes128
     000005DE  A$aes128_z80_sdcc_Osries/aes128_   aes128
     000005E1  A$aes128_z80_sdcc_Osries/aes128_   aes128
     000005E2  A$aes128_z80_sdcc_Osries/aes128_   aes128
     000005E3  A$aes128_z80_sdcc_Osries/aes128_   aes128
     000005E4  A$aes128_z80_sdcc_Osries/aes128_   aes128
     000005E5  A$aes128_z80_sdcc_Osries/aes128_   aes128
     000005E8  A$aes128_z80_sdcc_Osries/aes128_   aes128
     000005EB  A$aes128_z80_sdcc_Osries/aes128_   aes128
     000005EC  A$aes128_z80_sdcc_Osries/aes128_   aes128
     000005ED  A$aes128_z80_sdcc_Osries/aes128_   aes128
     000005F0  A$aes128_z80_sdcc_Osries/aes128_   aes128
     000005F3  A$aes128_z80_sdcc_Osries/aes128_   aes128
     000005F4  A$aes128_z80_sdcc_Osries/aes128_   aes128
     000005F5  A$aes128_z80_sdcc_Osries/aes128_   aes128
     000005F8  A$aes128_z80_sdcc_Osries/aes128_   aes128
     000005FB  A$aes128_z80_sdcc_Osries/aes128_   aes128
ASxxxx Linker V03.00 + NoICE + sdld,  page 11.
Hexadecimal  [32-Bits]

Area                                    Addr        Size        Decimal Bytes (Attributes)
--------------------------------        ----        ----        ------- ----- ------------
_CODE                               00000200    000015BA =        5562. bytes (REL,CON)

      Value  Global                              Global Defined In Module
      -----  --------------------------------   ------------------------
     000005FC  A$aes128_z80_sdcc_Osries/aes128_   aes128
     000005FD  A$aes128_z80_sdcc_Osries/aes128_   aes128
     00000600  A$aes128_z80_sdcc_Osries/aes128_   aes128
     00000603  A$aes128_z80_sdcc_Osries/aes128_   aes128
     00000606  A$aes128_z80_sdcc_Osries/aes128_   aes128
     00000607  A$aes128_z80_sdcc_Osries/aes128_   aes128
     00000608  A$aes128_z80_sdcc_Osries/aes128_   aes128
     00000609  A$aes128_z80_sdcc_Osries/aes128_   aes128
     0000060A  A$aes128_z80_sdcc_Osries/aes128_   aes128
     0000060B  A$aes128_z80_sdcc_Osries/aes128_   aes128
     0000060E  A$aes128_z80_sdcc_Osries/aes128_   aes128
     0000060F  A$aes128_z80_sdcc_Osries/aes128_   aes128
     00000610  A$aes128_z80_sdcc_Osries/aes128_   aes128
     00000611  A$aes128_z80_sdcc_Osries/aes128_   aes128
     00000612  A$aes128_z80_sdcc_Osries/aes128_   aes128
     00000615  A$aes128_z80_sdcc_Osries/aes128_   aes128
     00000616  A$aes128_z80_sdcc_Osries/aes128_   aes128
     00000616  C$aes128.c$74$2_0$44               aes128
     00000617  A$aes128_z80_sdcc_Osries/aes128_   aes128
     0000061A  A$aes128_z80_sdcc_Osries/aes128_   aes128
     0000061A  C$aes128.c$82$1_0$43               aes128
     0000061D  A$aes128_z80_sdcc_Osries/aes128_   aes128
     00000620  A$aes128_z80_sdcc_Osries/aes128_   aes128
     00000623  A$aes128_z80_sdcc_Osries/aes128_   aes128
     00000626  A$aes128_z80_sdcc_Osries/aes128_   aes128
     00000629  A$aes128_z80_sdcc_Osries/aes128_   aes128
     0000062B  A$aes128_z80_sdcc_Osries/aes128_   aes128
     0000062D  A$aes128_z80_sdcc_Osries/aes128_   aes128
     0000062F  A$aes128_z80_sdcc_Osries/aes128_   aes128
     0000062F  C$aes128.c$83$1_0$43               aes128
     0000062F  XFaes128$mix_columns$0$0           aes128
     00000630  A$aes128_z80_sdcc_Osries/aes128_   aes128
     00000630  C$aes128.c$85$1_0$48               aes128
     00000630  Faes128$add_round_key$0$0          aes128
     00000633  A$aes128_z80_sdcc_Osries/aes128_   aes128
     00000634  A$aes128_z80_sdcc_Osries/aes128_   aes128
     00000637  A$aes128_z80_sdcc_Osries/aes128_   aes128
     00000638  A$aes128_z80_sdcc_Osries/aes128_   aes128
     0000063A  A$aes128_z80_sdcc_Osries/aes128_   aes128
     0000063B  A$aes128_z80_sdcc_Osries/aes128_   aes128
     0000063C  A$aes128_z80_sdcc_Osries/aes128_   aes128
     0000063D  A$aes128_z80_sdcc_Osries/aes128_   aes128
     0000063E  A$aes128_z80_sdcc_Osries/aes128_   aes128
     00000640  A$aes128_z80_sdcc_Osries/aes128_   aes128
     00000642  A$aes128_z80_sdcc_Osries/aes128_   aes128
     00000642  C$aes128.c$87$3_0$49               aes128
     00000645  A$aes128_z80_sdcc_Osries/aes128_   aes128
     00000646  A$aes128_z80_sdcc_Osries/aes128_   aes128
     00000647  A$aes128_z80_sdcc_Osries/aes128_   aes128
     0000064A  A$aes128_z80_sdcc_Osries/aes128_   aes128
     0000064B  A$aes128_z80_sdcc_Osries/aes128_   aes128
ASxxxx Linker V03.00 + NoICE + sdld,  page 12.
Hexadecimal  [32-Bits]

Area                                    Addr        Size        Decimal Bytes (Attributes)
--------------------------------        ----        ----        ------- ----- ------------
_CODE                               00000200    000015BA =        5562. bytes (REL,CON)

      Value  Global                              Global Defined In Module
      -----  --------------------------------   ------------------------
     0000064C  A$aes128_z80_sdcc_Osries/aes128_   aes128
     0000064D  A$aes128_z80_sdcc_Osries/aes128_   aes128
     00000650  A$aes128_z80_sdcc_Osries/aes128_   aes128
     00000653  A$aes128_z80_sdcc_Osries/aes128_   aes128
     00000656  A$aes128_z80_sdcc_Osries/aes128_   aes128
     00000657  A$aes128_z80_sdcc_Osries/aes128_   aes128
     00000658  A$aes128_z80_sdcc_Osries/aes128_   aes128
     0000065B  A$aes128_z80_sdcc_Osries/aes128_   aes128
     0000065C  A$aes128_z80_sdcc_Osries/aes128_   aes128
     0000065C  C$aes128.c$86$2_0$48               aes128
     0000065D  A$aes128_z80_sdcc_Osries/aes128_   aes128
     0000065F  A$aes128_z80_sdcc_Osries/aes128_   aes128
     00000660  A$aes128_z80_sdcc_Osries/aes128_   aes128
     00000662  A$aes128_z80_sdcc_Osries/aes128_   aes128
     00000662  C$aes128.c$89$2_0$48               aes128
     00000662  XFaes128$add_round_key$0$0         aes128
     00000663  A$aes128_z80_sdcc_Osries/aes128_   aes128
     00000663  C$aes128.c$91$2_0$51               aes128
     00000663  Faes128$key_expansion$0$0          aes128
     00000666  A$aes128_z80_sdcc_Osries/aes128_   aes128
     00000669  A$aes128_z80_sdcc_Osries/aes128_   aes128
     0000066A  A$aes128_z80_sdcc_Osries/aes128_   aes128
     0000066B  A$aes128_z80_sdcc_Osries/aes128_   aes128
     0000066B  C$aes128.c$92$1_0$51               aes128
     0000066E  A$aes128_z80_sdcc_Osries/aes128_   aes128
     00000671  A$aes128_z80_sdcc_Osries/aes128_   aes128
     00000672  A$aes128_z80_sdcc_Osries/aes128_   aes128
     00000673  A$aes128_z80_sdcc_Osries/aes128_   aes128
     00000676  A$aes128_z80_sdcc_Osries/aes128_   aes128
     00000679  A$aes128_z80_sdcc_Osries/aes128_   aes128
     0000067A  A$aes128_z80_sdcc_Osries/aes128_   aes128
     0000067D  A$aes128_z80_sdcc_Osries/aes128_   aes128
     0000067F  A$aes128_z80_sdcc_Osries/aes128_   aes128
     00000680  A$aes128_z80_sdcc_Osries/aes128_   aes128
     00000680  C$aes128.c$94$3_0$53               aes128
     00000683  A$aes128_z80_sdcc_Osries/aes128_   aes128
     00000685  A$aes128_z80_sdcc_Osries/aes128_   aes128
     00000686  A$aes128_z80_sdcc_Osries/aes128_   aes128
     00000688  A$aes128_z80_sdcc_Osries/aes128_   aes128
     00000689  A$aes128_z80_sdcc_Osries/aes128_   aes128
     0000068C  A$aes128_z80_sdcc_Osries/aes128_   aes128
     0000068E  A$aes128_z80_sdcc_Osries/aes128_   aes128
     00000691  A$aes128_z80_sdcc_Osries/aes128_   aes128
     00000691  C$aes128.c$95$3_0$53               aes128
     00000692  A$aes128_z80_sdcc_Osries/aes128_   aes128
     00000693  A$aes128_z80_sdcc_Osries/aes128_   aes128
     00000694  A$aes128_z80_sdcc_Osries/aes128_   aes128
     00000695  A$aes128_z80_sdcc_Osries/aes128_   aes128
     00000696  A$aes128_z80_sdcc_Osries/aes128_   aes128
     00000697  A$aes128_z80_sdcc_Osries/aes128_   aes128
     00000698  A$aes128_z80_sdcc_Osries/aes128_   aes128
ASxxxx Linker V03.00 + NoICE + sdld,  page 13.
Hexadecimal  [32-Bits]

Area                                    Addr        Size        Decimal Bytes (Attributes)
--------------------------------        ----        ----        ------- ----- ------------
_CODE                               00000200    000015BA =        5562. bytes (REL,CON)

      Value  Global                              Global Defined In Module
      -----  --------------------------------   ------------------------
     00000699  A$aes128_z80_sdcc_Osries/aes128_   aes128
     0000069A  A$aes128_z80_sdcc_Osries/aes128_   aes128
     0000069B  A$aes128_z80_sdcc_Osries/aes128_   aes128
     0000069C  A$aes128_z80_sdcc_Osries/aes128_   aes128
     0000069C  C$aes128.c$96$3_0$53               aes128
     0000069D  A$aes128_z80_sdcc_Osries/aes128_   aes128
     0000069E  A$aes128_z80_sdcc_Osries/aes128_   aes128
     0000069F  A$aes128_z80_sdcc_Osries/aes128_   aes128
     000006A0  A$aes128_z80_sdcc_Osries/aes128_   aes128
     000006A1  A$aes128_z80_sdcc_Osries/aes128_   aes128
     000006A2  A$aes128_z80_sdcc_Osries/aes128_   aes128
     000006A3  A$aes128_z80_sdcc_Osries/aes128_   aes128
     000006A6  A$aes128_z80_sdcc_Osries/aes128_   aes128
     000006A9  A$aes128_z80_sdcc_Osries/aes128_   aes128
     000006A9  C$aes128.c$98$3_0$53               aes128
     000006AA  A$aes128_z80_sdcc_Osries/aes128_   aes128
     000006AB  A$aes128_z80_sdcc_Osries/aes128_   aes128
     000006AC  A$aes128_z80_sdcc_Osries/aes128_   aes128
     000006AF  A$aes128_z80_sdcc_Osries/aes128_   aes128
     000006B0  A$aes128_z80_sdcc_Osries/aes128_   aes128
     000006B1  A$aes128_z80_sdcc_Osries/aes128_   aes128
     000006B2  A$aes128_z80_sdcc_Osries/aes128_   aes128
     000006B5  A$aes128_z80_sdcc_Osries/aes128_   aes128
     000006B6  A$aes128_z80_sdcc_Osries/aes128_   aes128
     000006B7  A$aes128_z80_sdcc_Osries/aes128_   aes128
     000006B8  A$aes128_z80_sdcc_Osries/aes128_   aes128
     000006BA  A$aes128_z80_sdcc_Osries/aes128_   aes128
     000006BB  A$aes128_z80_sdcc_Osries/aes128_   aes128
     000006BD  A$aes128_z80_sdcc_Osries/aes128_   aes128
     000006BF  A$aes128_z80_sdcc_Osries/aes128_   aes128
     000006C0  A$aes128_z80_sdcc_Osries/aes128_   aes128
     000006C1  A$aes128_z80_sdcc_Osries/aes128_   aes128
     000006C4  A$aes128_z80_sdcc_Osries/aes128_   aes128
     000006C7  A$aes128_z80_sdcc_Osries/aes128_   aes128
     000006CA  A$aes128_z80_sdcc_Osries/aes128_   aes128
     000006CB  A$aes128_z80_sdcc_Osries/aes128_   aes128
     000006CC  A$aes128_z80_sdcc_Osries/aes128_   aes128
     000006CF  A$aes128_z80_sdcc_Osries/aes128_   aes128
     000006D2  A$aes128_z80_sdcc_Osries/aes128_   aes128
     000006D5  A$aes128_z80_sdcc_Osries/aes128_   aes128
     000006D6  A$aes128_z80_sdcc_Osries/aes128_   aes128
     000006D6  C$aes128.c$99$3_0$53               aes128
     000006D9  A$aes128_z80_sdcc_Osries/aes128_   aes128
     000006DB  A$aes128_z80_sdcc_Osries/aes128_   aes128
     000006DE  A$aes128_z80_sdcc_Osries/aes128_   aes128
     000006E1  A$aes128_z80_sdcc_Osries/aes128_   aes128
     000006E3  A$aes128_z80_sdcc_Osries/aes128_   aes128
     000006E6  A$aes128_z80_sdcc_Osries/aes128_   aes128
     000006E7  A$aes128_z80_sdcc_Osries/aes128_   aes128
     000006E8  A$aes128_z80_sdcc_Osries/aes128_   aes128
     000006E9  A$aes128_z80_sdcc_Osries/aes128_   aes128
ASxxxx Linker V03.00 + NoICE + sdld,  page 14.
Hexadecimal  [32-Bits]

Area                                    Addr        Size        Decimal Bytes (Attributes)
--------------------------------        ----        ----        ------- ----- ------------
_CODE                               00000200    000015BA =        5562. bytes (REL,CON)

      Value  Global                              Global Defined In Module
      -----  --------------------------------   ------------------------
     000006EA  A$aes128_z80_sdcc_Osries/aes128_   aes128
     000006ED  A$aes128_z80_sdcc_Osries/aes128_   aes128
     000006EE  A$aes128_z80_sdcc_Osries/aes128_   aes128
     000006EF  A$aes128_z80_sdcc_Osries/aes128_   aes128
     000006F0  A$aes128_z80_sdcc_Osries/aes128_   aes128
     000006F3  A$aes128_z80_sdcc_Osries/aes128_   aes128
     000006F4  A$aes128_z80_sdcc_Osries/aes128_   aes128
     000006F5  A$aes128_z80_sdcc_Osries/aes128_   aes128
     000006F6  A$aes128_z80_sdcc_Osries/aes128_   aes128
     000006F8  A$aes128_z80_sdcc_Osries/aes128_   aes128
     000006F9  A$aes128_z80_sdcc_Osries/aes128_   aes128
     000006FB  A$aes128_z80_sdcc_Osries/aes128_   aes128
     000006FD  A$aes128_z80_sdcc_Osries/aes128_   aes128
     000006FE  A$aes128_z80_sdcc_Osries/aes128_   aes128
     000006FF  A$aes128_z80_sdcc_Osries/aes128_   aes128
     00000702  A$aes128_z80_sdcc_Osries/aes128_   aes128
     00000705  A$aes128_z80_sdcc_Osries/aes128_   aes128
     00000708  A$aes128_z80_sdcc_Osries/aes128_   aes128
     00000709  A$aes128_z80_sdcc_Osries/aes128_   aes128
     00000709  C$aes128.c$100$3_0$53              aes128
     0000070C  A$aes128_z80_sdcc_Osries/aes128_   aes128
     0000070E  A$aes128_z80_sdcc_Osries/aes128_   aes128
     00000711  A$aes128_z80_sdcc_Osries/aes128_   aes128
     00000714  A$aes128_z80_sdcc_Osries/aes128_   aes128
     00000716  A$aes128_z80_sdcc_Osries/aes128_   aes128
     00000719  A$aes128_z80_sdcc_Osries/aes128_   aes128
     0000071A  A$aes128_z80_sdcc_Osries/aes128_   aes128
     0000071B  A$aes128_z80_sdcc_Osries/aes128_   aes128
     0000071C  A$aes128_z80_sdcc_Osries/aes128_   aes128
     0000071D  A$aes128_z80_sdcc_Osries/aes128_   aes128
     0000071E  A$aes128_z80_sdcc_Osries/aes128_   aes128
     00000721  A$aes128_z80_sdcc_Osries/aes128_   aes128
     00000722  A$aes128_z80_sdcc_Osries/aes128_   aes128
     00000723  A$aes128_z80_sdcc_Osries/aes128_   aes128
     00000724  A$aes128_z80_sdcc_Osries/aes128_   aes128
     00000727  A$aes128_z80_sdcc_Osries/aes128_   aes128
     00000728  A$aes128_z80_sdcc_Osries/aes128_   aes128
     00000729  A$aes128_z80_sdcc_Osries/aes128_   aes128
     0000072A  A$aes128_z80_sdcc_Osries/aes128_   aes128
     0000072C  A$aes128_z80_sdcc_Osries/aes128_   aes128
     0000072D  A$aes128_z80_sdcc_Osries/aes128_   aes128
     0000072F  A$aes128_z80_sdcc_Osries/aes128_   aes128
     00000731  A$aes128_z80_sdcc_Osries/aes128_   aes128
     00000732  A$aes128_z80_sdcc_Osries/aes128_   aes128
     00000733  A$aes128_z80_sdcc_Osries/aes128_   aes128
     00000736  A$aes128_z80_sdcc_Osries/aes128_   aes128
     00000739  A$aes128_z80_sdcc_Osries/aes128_   aes128
     0000073C  A$aes128_z80_sdcc_Osries/aes128_   aes128
     0000073D  A$aes128_z80_sdcc_Osries/aes128_   aes128
     0000073D  C$aes128.c$101$3_0$53              aes128
     00000740  A$aes128_z80_sdcc_Osries/aes128_   aes128
ASxxxx Linker V03.00 + NoICE + sdld,  page 15.
Hexadecimal  [32-Bits]

Area                                    Addr        Size        Decimal Bytes (Attributes)
--------------------------------        ----        ----        ------- ----- ------------
_CODE                               00000200    000015BA =        5562. bytes (REL,CON)

      Value  Global                              Global Defined In Module
      -----  --------------------------------   ------------------------
     00000742  A$aes128_z80_sdcc_Osries/aes128_   aes128
     00000745  A$aes128_z80_sdcc_Osries/aes128_   aes128
     00000748  A$aes128_z80_sdcc_Osries/aes128_   aes128
     0000074A  A$aes128_z80_sdcc_Osries/aes128_   aes128
     0000074D  A$aes128_z80_sdcc_Osries/aes128_   aes128
     0000074E  A$aes128_z80_sdcc_Osries/aes128_   aes128
     0000074F  A$aes128_z80_sdcc_Osries/aes128_   aes128
     00000750  A$aes128_z80_sdcc_Osries/aes128_   aes128
     00000751  A$aes128_z80_sdcc_Osries/aes128_   aes128
     00000752  A$aes128_z80_sdcc_Osries/aes128_   aes128
     00000753  A$aes128_z80_sdcc_Osries/aes128_   aes128
     00000756  A$aes128_z80_sdcc_Osries/aes128_   aes128
     00000757  A$aes128_z80_sdcc_Osries/aes128_   aes128
     00000758  A$aes128_z80_sdcc_Osries/aes128_   aes128
     00000759  A$aes128_z80_sdcc_Osries/aes128_   aes128
     0000075C  A$aes128_z80_sdcc_Osries/aes128_   aes128
     0000075D  A$aes128_z80_sdcc_Osries/aes128_   aes128
     0000075E  A$aes128_z80_sdcc_Osries/aes128_   aes128
     0000075F  A$aes128_z80_sdcc_Osries/aes128_   aes128
     00000761  A$aes128_z80_sdcc_Osries/aes128_   aes128
     00000762  A$aes128_z80_sdcc_Osries/aes128_   aes128
     00000764  A$aes128_z80_sdcc_Osries/aes128_   aes128
     00000766  A$aes128_z80_sdcc_Osries/aes128_   aes128
     00000767  A$aes128_z80_sdcc_Osries/aes128_   aes128
     00000768  A$aes128_z80_sdcc_Osries/aes128_   aes128
     0000076B  A$aes128_z80_sdcc_Osries/aes128_   aes128
     0000076E  A$aes128_z80_sdcc_Osries/aes128_   aes128
     00000771  A$aes128_z80_sdcc_Osries/aes128_   aes128
     00000772  A$aes128_z80_sdcc_Osries/aes128_   aes128
     00000772  C$aes128.c$103$2_0$51              aes128
     00000776  A$aes128_z80_sdcc_Osries/aes128_   aes128
     00000777  A$aes128_z80_sdcc_Osries/aes128_   aes128
     0000077A  A$aes128_z80_sdcc_Osries/aes128_   aes128
     0000077D  A$aes128_z80_sdcc_Osries/aes128_   aes128
     0000077F  A$aes128_z80_sdcc_Osries/aes128_   aes128
     00000782  A$aes128_z80_sdcc_Osries/aes128_   aes128
     00000783  A$aes128_z80_sdcc_Osries/aes128_   aes128
     00000784  A$aes128_z80_sdcc_Osries/aes128_   aes128
     00000785  A$aes128_z80_sdcc_Osries/aes128_   aes128
     00000787  A$aes128_z80_sdcc_Osries/aes128_   aes128
     00000789  A$aes128_z80_sdcc_Osries/aes128_   aes128
     00000789  C$aes128.c$104$5_0$55              aes128
     0000078C  A$aes128_z80_sdcc_Osries/aes128_   aes128
     0000078F  A$aes128_z80_sdcc_Osries/aes128_   aes128
     00000792  A$aes128_z80_sdcc_Osries/aes128_   aes128
     00000795  A$aes128_z80_sdcc_Osries/aes128_   aes128
     00000798  A$aes128_z80_sdcc_Osries/aes128_   aes128
     0000079B  A$aes128_z80_sdcc_Osries/aes128_   aes128
     0000079E  A$aes128_z80_sdcc_Osries/aes128_   aes128
     000007A1  A$aes128_z80_sdcc_Osries/aes128_   aes128
     000007A2  A$aes128_z80_sdcc_Osries/aes128_   aes128
ASxxxx Linker V03.00 + NoICE + sdld,  page 16.
Hexadecimal  [32-Bits]

Area                                    Addr        Size        Decimal Bytes (Attributes)
--------------------------------        ----        ----        ------- ----- ------------
_CODE                               00000200    000015BA =        5562. bytes (REL,CON)

      Value  Global                              Global Defined In Module
      -----  --------------------------------   ------------------------
     000007A5  A$aes128_z80_sdcc_Osries/aes128_   aes128
     000007A8  A$aes128_z80_sdcc_Osries/aes128_   aes128
     000007A9  A$aes128_z80_sdcc_Osries/aes128_   aes128
     000007AA  A$aes128_z80_sdcc_Osries/aes128_   aes128
     000007AD  A$aes128_z80_sdcc_Osries/aes128_   aes128
     000007B0  A$aes128_z80_sdcc_Osries/aes128_   aes128
     000007B2  A$aes128_z80_sdcc_Osries/aes128_   aes128
     000007B3  A$aes128_z80_sdcc_Osries/aes128_   aes128
     000007B6  A$aes128_z80_sdcc_Osries/aes128_   aes128
     000007B8  A$aes128_z80_sdcc_Osries/aes128_   aes128
     000007B9  A$aes128_z80_sdcc_Osries/aes128_   aes128
     000007BA  A$aes128_z80_sdcc_Osries/aes128_   aes128
     000007BD  A$aes128_z80_sdcc_Osries/aes128_   aes128
     000007BE  A$aes128_z80_sdcc_Osries/aes128_   aes128
     000007BF  A$aes128_z80_sdcc_Osries/aes128_   aes128
     000007C2  A$aes128_z80_sdcc_Osries/aes128_   aes128
     000007C3  A$aes128_z80_sdcc_Osries/aes128_   aes128
     000007C4  A$aes128_z80_sdcc_Osries/aes128_   aes128
     000007C7  A$aes128_z80_sdcc_Osries/aes128_   aes128
     000007CA  A$aes128_z80_sdcc_Osries/aes128_   aes128
     000007CD  A$aes128_z80_sdcc_Osries/aes128_   aes128
     000007CE  A$aes128_z80_sdcc_Osries/aes128_   aes128
     000007CE  C$aes128.c$103$4_0$54              aes128
     000007D1  A$aes128_z80_sdcc_Osries/aes128_   aes128
     000007D3  A$aes128_z80_sdcc_Osries/aes128_   aes128
     000007D6  A$aes128_z80_sdcc_Osries/aes128_   aes128
     000007D8  A$aes128_z80_sdcc_Osries/aes128_   aes128
     000007D8  C$aes128.c$94$2_0$52               aes128
     000007D9  A$aes128_z80_sdcc_Osries/aes128_   aes128
     000007DC  A$aes128_z80_sdcc_Osries/aes128_   aes128
     000007DE  A$aes128_z80_sdcc_Osries/aes128_   aes128
     000007E0  A$aes128_z80_sdcc_Osries/aes128_   aes128
     000007E0  C$aes128.c$107$2_0$51              aes128
     000007E0  XFaes128$key_expansion$0$0         aes128
     000007E1  A$aes128_z80_sdcc_Osries/aes128_   aes128
     000007E1  C$aes128.c$109$2_0$57              aes128
     000007E1  G$aes128_encrypt$0$0               aes128
     000007E1  _aes128_encrypt                    aes128
     000007E4  A$aes128_z80_sdcc_Osries/aes128_   aes128
     000007E7  A$aes128_z80_sdcc_Osries/aes128_   aes128
     000007E8  A$aes128_z80_sdcc_Osries/aes128_   aes128
     000007E9  A$aes128_z80_sdcc_Osries/aes128_   aes128
     000007E9  C$aes128.c$113$1_0$57              aes128
     000007EC  A$aes128_z80_sdcc_Osries/aes128_   aes128
     000007ED  A$aes128_z80_sdcc_Osries/aes128_   aes128
     000007F0  A$aes128_z80_sdcc_Osries/aes128_   aes128
     000007F3  A$aes128_z80_sdcc_Osries/aes128_   aes128
     000007F4  A$aes128_z80_sdcc_Osries/aes128_   aes128
     000007F7  A$aes128_z80_sdcc_Osries/aes128_   aes128
     000007FA  A$aes128_z80_sdcc_Osries/aes128_   aes128
     000007FB  A$aes128_z80_sdcc_Osries/aes128_   aes128
ASxxxx Linker V03.00 + NoICE + sdld,  page 17.
Hexadecimal  [32-Bits]

Area                                    Addr        Size        Decimal Bytes (Attributes)
--------------------------------        ----        ----        ------- ----- ------------
_CODE                               00000200    000015BA =        5562. bytes (REL,CON)

      Value  Global                              Global Defined In Module
      -----  --------------------------------   ------------------------
     000007FE  A$aes128_z80_sdcc_Osries/aes128_   aes128
     000007FF  A$aes128_z80_sdcc_Osries/aes128_   aes128
     00000800  A$aes128_z80_sdcc_Osries/aes128_   aes128
     00000800  C$aes128.c$114$1_0$57              aes128
     00000803  A$aes128_z80_sdcc_Osries/aes128_   aes128
     00000804  A$aes128_z80_sdcc_Osries/aes128_   aes128
     00000805  A$aes128_z80_sdcc_Osries/aes128_   aes128
     00000806  A$aes128_z80_sdcc_Osries/aes128_   aes128
     00000807  A$aes128_z80_sdcc_Osries/aes128_   aes128
     00000808  A$aes128_z80_sdcc_Osries/aes128_   aes128
     0000080B  A$aes128_z80_sdcc_Osries/aes128_   aes128
     0000080E  A$aes128_z80_sdcc_Osries/aes128_   aes128
     0000080F  A$aes128_z80_sdcc_Osries/aes128_   aes128
     00000812  A$aes128_z80_sdcc_Osries/aes128_   aes128
     00000814  A$aes128_z80_sdcc_Osries/aes128_   aes128
     00000815  A$aes128_z80_sdcc_Osries/aes128_   aes128
     00000815  C$aes128.c$116$1_0$57              aes128
     00000818  A$aes128_z80_sdcc_Osries/aes128_   aes128
     0000081B  A$aes128_z80_sdcc_Osries/aes128_   aes128
     0000081C  A$aes128_z80_sdcc_Osries/aes128_   aes128
     0000081D  A$aes128_z80_sdcc_Osries/aes128_   aes128
     0000081E  A$aes128_z80_sdcc_Osries/aes128_   aes128
     0000081F  A$aes128_z80_sdcc_Osries/aes128_   aes128
     00000820  A$aes128_z80_sdcc_Osries/aes128_   aes128
     00000823  A$aes128_z80_sdcc_Osries/aes128_   aes128
     00000824  A$aes128_z80_sdcc_Osries/aes128_   aes128
     00000825  A$aes128_z80_sdcc_Osries/aes128_   aes128
     00000826  A$aes128_z80_sdcc_Osries/aes128_   aes128
     00000826  C$aes128.c$118$3_0$59              aes128
     00000829  A$aes128_z80_sdcc_Osries/aes128_   aes128
     0000082C  A$aes128_z80_sdcc_Osries/aes128_   aes128
     0000082F  A$aes128_z80_sdcc_Osries/aes128_   aes128
     00000832  A$aes128_z80_sdcc_Osries/aes128_   aes128
     00000835  A$aes128_z80_sdcc_Osries/aes128_   aes128
     00000838  A$aes128_z80_sdcc_Osries/aes128_   aes128
     0000083B  A$aes128_z80_sdcc_Osries/aes128_   aes128
     0000083E  A$aes128_z80_sdcc_Osries/aes128_   aes128
     00000842  A$aes128_z80_sdcc_Osries/aes128_   aes128
     00000843  A$aes128_z80_sdcc_Osries/aes128_   aes128
     00000846  A$aes128_z80_sdcc_Osries/aes128_   aes128
     00000849  A$aes128_z80_sdcc_Osries/aes128_   aes128
     0000084B  A$aes128_z80_sdcc_Osries/aes128_   aes128
     0000084E  A$aes128_z80_sdcc_Osries/aes128_   aes128
     0000084F  A$aes128_z80_sdcc_Osries/aes128_   aes128
     00000850  A$aes128_z80_sdcc_Osries/aes128_   aes128
     00000851  A$aes128_z80_sdcc_Osries/aes128_   aes128
     00000853  A$aes128_z80_sdcc_Osries/aes128_   aes128
     00000855  A$aes128_z80_sdcc_Osries/aes128_   aes128
     00000855  C$aes128.c$119$3_0$59              aes128
     00000858  A$aes128_z80_sdcc_Osries/aes128_   aes128
     0000085B  A$aes128_z80_sdcc_Osries/aes128_   aes128
ASxxxx Linker V03.00 + NoICE + sdld,  page 18.
Hexadecimal  [32-Bits]

Area                                    Addr        Size        Decimal Bytes (Attributes)
--------------------------------        ----        ----        ------- ----- ------------
_CODE                               00000200    000015BA =        5562. bytes (REL,CON)

      Value  Global                              Global Defined In Module
      -----  --------------------------------   ------------------------
     0000085C  A$aes128_z80_sdcc_Osries/aes128_   aes128
     0000085D  A$aes128_z80_sdcc_Osries/aes128_   aes128
     00000860  A$aes128_z80_sdcc_Osries/aes128_   aes128
     00000861  A$aes128_z80_sdcc_Osries/aes128_   aes128
     00000862  A$aes128_z80_sdcc_Osries/aes128_   aes128
     00000862  C$aes128.c$120$3_0$59              aes128
     00000865  A$aes128_z80_sdcc_Osries/aes128_   aes128
     00000868  A$aes128_z80_sdcc_Osries/aes128_   aes128
     00000869  A$aes128_z80_sdcc_Osries/aes128_   aes128
     0000086A  A$aes128_z80_sdcc_Osries/aes128_   aes128
     0000086D  A$aes128_z80_sdcc_Osries/aes128_   aes128
     0000086E  A$aes128_z80_sdcc_Osries/aes128_   aes128
     0000086F  A$aes128_z80_sdcc_Osries/aes128_   aes128
     0000086F  C$aes128.c$121$3_0$59              aes128
     00000872  A$aes128_z80_sdcc_Osries/aes128_   aes128
     00000875  A$aes128_z80_sdcc_Osries/aes128_   aes128
     00000876  A$aes128_z80_sdcc_Osries/aes128_   aes128
     00000877  A$aes128_z80_sdcc_Osries/aes128_   aes128
     0000087A  A$aes128_z80_sdcc_Osries/aes128_   aes128
     0000087B  A$aes128_z80_sdcc_Osries/aes128_   aes128
     0000087C  A$aes128_z80_sdcc_Osries/aes128_   aes128
     0000087C  C$aes128.c$122$3_0$59              aes128
     0000087F  A$aes128_z80_sdcc_Osries/aes128_   aes128
     00000882  A$aes128_z80_sdcc_Osries/aes128_   aes128
     00000884  A$aes128_z80_sdcc_Osries/aes128_   aes128
     00000886  A$aes128_z80_sdcc_Osries/aes128_   aes128
     00000888  A$aes128_z80_sdcc_Osries/aes128_   aes128
     0000088A  A$aes128_z80_sdcc_Osries/aes128_   aes128
     0000088C  A$aes128_z80_sdcc_Osries/aes128_   aes128
     0000088E  A$aes128_z80_sdcc_Osries/aes128_   aes128
     00000890  A$aes128_z80_sdcc_Osries/aes128_   aes128
     00000892  A$aes128_z80_sdcc_Osries/aes128_   aes128
     00000893  A$aes128_z80_sdcc_Osries/aes128_   aes128
     00000896  A$aes128_z80_sdcc_Osries/aes128_   aes128
     00000897  A$aes128_z80_sdcc_Osries/aes128_   aes128
     00000898  A$aes128_z80_sdcc_Osries/aes128_   aes128
     0000089B  A$aes128_z80_sdcc_Osries/aes128_   aes128
     0000089C  A$aes128_z80_sdcc_Osries/aes128_   aes128
     0000089F  A$aes128_z80_sdcc_Osries/aes128_   aes128
     000008A2  A$aes128_z80_sdcc_Osries/aes128_   aes128
     000008A3  A$aes128_z80_sdcc_Osries/aes128_   aes128
     000008A4  A$aes128_z80_sdcc_Osries/aes128_   aes128
     000008A5  A$aes128_z80_sdcc_Osries/aes128_   aes128
     000008A8  A$aes128_z80_sdcc_Osries/aes128_   aes128
     000008A9  A$aes128_z80_sdcc_Osries/aes128_   aes128
     000008AA  A$aes128_z80_sdcc_Osries/aes128_   aes128
     000008AB  A$aes128_z80_sdcc_Osries/aes128_   aes128
     000008AB  C$aes128.c$118$2_0$58              aes128
     000008AE  A$aes128_z80_sdcc_Osries/aes128_   aes128
     000008B0  A$aes128_z80_sdcc_Osries/aes128_   aes128
     000008B3  A$aes128_z80_sdcc_Osries/aes128_   aes128
ASxxxx Linker V03.00 + NoICE + sdld,  page 19.
Hexadecimal  [32-Bits]

Area                                    Addr        Size        Decimal Bytes (Attributes)
--------------------------------        ----        ----        ------- ----- ------------
_CODE                               00000200    000015BA =        5562. bytes (REL,CON)

      Value  Global                              Global Defined In Module
      -----  --------------------------------   ------------------------
     000008B5  A$aes128_z80_sdcc_Osries/aes128_   aes128
     000008B5  C$aes128.c$125$1_0$57              aes128
     000008B6  A$aes128_z80_sdcc_Osries/aes128_   aes128
     000008B7  A$aes128_z80_sdcc_Osries/aes128_   aes128
     000008B8  A$aes128_z80_sdcc_Osries/aes128_   aes128
     000008B9  A$aes128_z80_sdcc_Osries/aes128_   aes128
     000008BC  A$aes128_z80_sdcc_Osries/aes128_   aes128
     000008BD  A$aes128_z80_sdcc_Osries/aes128_   aes128
     000008BE  A$aes128_z80_sdcc_Osries/aes128_   aes128
     000008BE  C$aes128.c$126$1_0$57              aes128
     000008BF  A$aes128_z80_sdcc_Osries/aes128_   aes128
     000008C0  A$aes128_z80_sdcc_Osries/aes128_   aes128
     000008C1  A$aes128_z80_sdcc_Osries/aes128_   aes128
     000008C2  A$aes128_z80_sdcc_Osries/aes128_   aes128
     000008C5  A$aes128_z80_sdcc_Osries/aes128_   aes128
     000008C6  A$aes128_z80_sdcc_Osries/aes128_   aes128
     000008C7  A$aes128_z80_sdcc_Osries/aes128_   aes128
     000008C7  C$aes128.c$127$1_0$57              aes128
     000008CA  A$aes128_z80_sdcc_Osries/aes128_   aes128
     000008CC  A$aes128_z80_sdcc_Osries/aes128_   aes128
     000008CD  A$aes128_z80_sdcc_Osries/aes128_   aes128
     000008D0  A$aes128_z80_sdcc_Osries/aes128_   aes128
     000008D2  A$aes128_z80_sdcc_Osries/aes128_   aes128
     000008D3  A$aes128_z80_sdcc_Osries/aes128_   aes128
     000008D4  A$aes128_z80_sdcc_Osries/aes128_   aes128
     000008D5  A$aes128_z80_sdcc_Osries/aes128_   aes128
     000008D6  A$aes128_z80_sdcc_Osries/aes128_   aes128
     000008D7  A$aes128_z80_sdcc_Osries/aes128_   aes128
     000008D8  A$aes128_z80_sdcc_Osries/aes128_   aes128
     000008DB  A$aes128_z80_sdcc_Osries/aes128_   aes128
     000008DC  A$aes128_z80_sdcc_Osries/aes128_   aes128
     000008DD  A$aes128_z80_sdcc_Osries/aes128_   aes128
     000008DE  A$aes128_z80_sdcc_Osries/aes128_   aes128
     000008DE  C$aes128.c$129$1_0$57              aes128
     000008E1  A$aes128_z80_sdcc_Osries/aes128_   aes128
     000008E4  A$aes128_z80_sdcc_Osries/aes128_   aes128
     000008E5  A$aes128_z80_sdcc_Osries/aes128_   aes128
     000008E6  A$aes128_z80_sdcc_Osries/aes128_   aes128
     000008E9  A$aes128_z80_sdcc_Osries/aes128_   aes128
     000008EB  A$aes128_z80_sdcc_Osries/aes128_   aes128
     000008ED  A$aes128_z80_sdcc_Osries/aes128_   aes128
     000008EF  A$aes128_z80_sdcc_Osries/aes128_   aes128
     000008EF  C$aes128.c$130$1_0$57              aes128
     000008EF  XG$aes128_encrypt$0$0              aes128
     000008F0  A$aes128_z80_sdcc_Osries/aes128_   aes128
     000008F0  C$aes128.c$132$1_0$60              aes128
     000008F0  G$main$0$0                         aes128
     000008F0  _main                              aes128
     000008F3  A$aes128_z80_sdcc_Osries/aes128_   aes128
     000008F6  A$aes128_z80_sdcc_Osries/aes128_   aes128
     000008F7  A$aes128_z80_sdcc_Osries/aes128_   aes128
ASxxxx Linker V03.00 + NoICE + sdld,  page 20.
Hexadecimal  [32-Bits]

Area                                    Addr        Size        Decimal Bytes (Attributes)
--------------------------------        ----        ----        ------- ----- ------------
_CODE                               00000200    000015BA =        5562. bytes (REL,CON)

      Value  Global                              Global Defined In Module
      -----  --------------------------------   ------------------------
     000008F8  A$aes128_z80_sdcc_Osries/aes128_   aes128
     000008F8  C$aes128.c$133$2_0$60              aes128
     000008FB  A$aes128_z80_sdcc_Osries/aes128_   aes128
     000008FC  A$aes128_z80_sdcc_Osries/aes128_   aes128
     000008FD  A$aes128_z80_sdcc_Osries/aes128_   aes128
     000008FF  A$aes128_z80_sdcc_Osries/aes128_   aes128
     00000900  A$aes128_z80_sdcc_Osries/aes128_   aes128
     00000901  A$aes128_z80_sdcc_Osries/aes128_   aes128
     00000902  A$aes128_z80_sdcc_Osries/aes128_   aes128
     00000903  A$aes128_z80_sdcc_Osries/aes128_   aes128
     00000905  A$aes128_z80_sdcc_Osries/aes128_   aes128
     00000906  A$aes128_z80_sdcc_Osries/aes128_   aes128
     00000907  A$aes128_z80_sdcc_Osries/aes128_   aes128
     00000908  A$aes128_z80_sdcc_Osries/aes128_   aes128
     00000909  A$aes128_z80_sdcc_Osries/aes128_   aes128
     0000090B  A$aes128_z80_sdcc_Osries/aes128_   aes128
     0000090C  A$aes128_z80_sdcc_Osries/aes128_   aes128
     0000090D  A$aes128_z80_sdcc_Osries/aes128_   aes128
     0000090E  A$aes128_z80_sdcc_Osries/aes128_   aes128
     0000090F  A$aes128_z80_sdcc_Osries/aes128_   aes128
     00000910  A$aes128_z80_sdcc_Osries/aes128_   aes128
     00000912  A$aes128_z80_sdcc_Osries/aes128_   aes128
     00000915  A$aes128_z80_sdcc_Osries/aes128_   aes128
     00000916  A$aes128_z80_sdcc_Osries/aes128_   aes128
     00000918  A$aes128_z80_sdcc_Osries/aes128_   aes128
     0000091B  A$aes128_z80_sdcc_Osries/aes128_   aes128
     0000091C  A$aes128_z80_sdcc_Osries/aes128_   aes128
     0000091E  A$aes128_z80_sdcc_Osries/aes128_   aes128
     00000921  A$aes128_z80_sdcc_Osries/aes128_   aes128
     00000922  A$aes128_z80_sdcc_Osries/aes128_   aes128
     00000924  A$aes128_z80_sdcc_Osries/aes128_   aes128
     00000927  A$aes128_z80_sdcc_Osries/aes128_   aes128
     00000928  A$aes128_z80_sdcc_Osries/aes128_   aes128
     0000092A  A$aes128_z80_sdcc_Osries/aes128_   aes128
     0000092D  A$aes128_z80_sdcc_Osries/aes128_   aes128
     0000092E  A$aes128_z80_sdcc_Osries/aes128_   aes128
     00000930  A$aes128_z80_sdcc_Osries/aes128_   aes128
     00000933  A$aes128_z80_sdcc_Osries/aes128_   aes128
     00000934  A$aes128_z80_sdcc_Osries/aes128_   aes128
     00000936  A$aes128_z80_sdcc_Osries/aes128_   aes128
     00000939  A$aes128_z80_sdcc_Osries/aes128_   aes128
     0000093A  A$aes128_z80_sdcc_Osries/aes128_   aes128
     0000093C  A$aes128_z80_sdcc_Osries/aes128_   aes128
     0000093F  A$aes128_z80_sdcc_Osries/aes128_   aes128
     00000940  A$aes128_z80_sdcc_Osries/aes128_   aes128
     00000942  A$aes128_z80_sdcc_Osries/aes128_   aes128
     00000945  A$aes128_z80_sdcc_Osries/aes128_   aes128
     00000946  A$aes128_z80_sdcc_Osries/aes128_   aes128
     00000948  A$aes128_z80_sdcc_Osries/aes128_   aes128
     0000094B  A$aes128_z80_sdcc_Osries/aes128_   aes128
     0000094C  A$aes128_z80_sdcc_Osries/aes128_   aes128
ASxxxx Linker V03.00 + NoICE + sdld,  page 21.
Hexadecimal  [32-Bits]

Area                                    Addr        Size        Decimal Bytes (Attributes)
--------------------------------        ----        ----        ------- ----- ------------
_CODE                               00000200    000015BA =        5562. bytes (REL,CON)

      Value  Global                              Global Defined In Module
      -----  --------------------------------   ------------------------
     0000094E  A$aes128_z80_sdcc_Osries/aes128_   aes128
     00000951  A$aes128_z80_sdcc_Osries/aes128_   aes128
     00000952  A$aes128_z80_sdcc_Osries/aes128_   aes128
     00000954  A$aes128_z80_sdcc_Osries/aes128_   aes128
     00000957  A$aes128_z80_sdcc_Osries/aes128_   aes128
     00000958  A$aes128_z80_sdcc_Osries/aes128_   aes128
     0000095A  A$aes128_z80_sdcc_Osries/aes128_   aes128
     0000095A  C$aes128.c$138$2_0$60              aes128
     0000095D  A$aes128_z80_sdcc_Osries/aes128_   aes128
     0000095E  A$aes128_z80_sdcc_Osries/aes128_   aes128
     0000095F  A$aes128_z80_sdcc_Osries/aes128_   aes128
     00000960  A$aes128_z80_sdcc_Osries/aes128_   aes128
     00000962  A$aes128_z80_sdcc_Osries/aes128_   aes128
     00000963  A$aes128_z80_sdcc_Osries/aes128_   aes128
     00000964  A$aes128_z80_sdcc_Osries/aes128_   aes128
     00000965  A$aes128_z80_sdcc_Osries/aes128_   aes128
     00000966  A$aes128_z80_sdcc_Osries/aes128_   aes128
     00000968  A$aes128_z80_sdcc_Osries/aes128_   aes128
     00000969  A$aes128_z80_sdcc_Osries/aes128_   aes128
     0000096A  A$aes128_z80_sdcc_Osries/aes128_   aes128
     0000096B  A$aes128_z80_sdcc_Osries/aes128_   aes128
     0000096C  A$aes128_z80_sdcc_Osries/aes128_   aes128
     0000096E  A$aes128_z80_sdcc_Osries/aes128_   aes128
     0000096F  A$aes128_z80_sdcc_Osries/aes128_   aes128
     00000970  A$aes128_z80_sdcc_Osries/aes128_   aes128
     00000971  A$aes128_z80_sdcc_Osries/aes128_   aes128
     00000972  A$aes128_z80_sdcc_Osries/aes128_   aes128
     00000973  A$aes128_z80_sdcc_Osries/aes128_   aes128
     00000975  A$aes128_z80_sdcc_Osries/aes128_   aes128
     00000978  A$aes128_z80_sdcc_Osries/aes128_   aes128
     00000979  A$aes128_z80_sdcc_Osries/aes128_   aes128
     0000097B  A$aes128_z80_sdcc_Osries/aes128_   aes128
     0000097E  A$aes128_z80_sdcc_Osries/aes128_   aes128
     0000097F  A$aes128_z80_sdcc_Osries/aes128_   aes128
     00000981  A$aes128_z80_sdcc_Osries/aes128_   aes128
     00000984  A$aes128_z80_sdcc_Osries/aes128_   aes128
     00000985  A$aes128_z80_sdcc_Osries/aes128_   aes128
     00000987  A$aes128_z80_sdcc_Osries/aes128_   aes128
     0000098A  A$aes128_z80_sdcc_Osries/aes128_   aes128
     0000098B  A$aes128_z80_sdcc_Osries/aes128_   aes128
     0000098D  A$aes128_z80_sdcc_Osries/aes128_   aes128
     00000990  A$aes128_z80_sdcc_Osries/aes128_   aes128
     00000991  A$aes128_z80_sdcc_Osries/aes128_   aes128
     00000993  A$aes128_z80_sdcc_Osries/aes128_   aes128
     00000996  A$aes128_z80_sdcc_Osries/aes128_   aes128
     00000997  A$aes128_z80_sdcc_Osries/aes128_   aes128
     00000999  A$aes128_z80_sdcc_Osries/aes128_   aes128
     0000099C  A$aes128_z80_sdcc_Osries/aes128_   aes128
     0000099D  A$aes128_z80_sdcc_Osries/aes128_   aes128
     0000099F  A$aes128_z80_sdcc_Osries/aes128_   aes128
     000009A2  A$aes128_z80_sdcc_Osries/aes128_   aes128
ASxxxx Linker V03.00 + NoICE + sdld,  page 22.
Hexadecimal  [32-Bits]

Area                                    Addr        Size        Decimal Bytes (Attributes)
--------------------------------        ----        ----        ------- ----- ------------
_CODE                               00000200    000015BA =        5562. bytes (REL,CON)

      Value  Global                              Global Defined In Module
      -----  --------------------------------   ------------------------
     000009A3  A$aes128_z80_sdcc_Osries/aes128_   aes128
     000009A5  A$aes128_z80_sdcc_Osries/aes128_   aes128
     000009A8  A$aes128_z80_sdcc_Osries/aes128_   aes128
     000009A9  A$aes128_z80_sdcc_Osries/aes128_   aes128
     000009AB  A$aes128_z80_sdcc_Osries/aes128_   aes128
     000009AE  A$aes128_z80_sdcc_Osries/aes128_   aes128
     000009AF  A$aes128_z80_sdcc_Osries/aes128_   aes128
     000009B1  A$aes128_z80_sdcc_Osries/aes128_   aes128
     000009B4  A$aes128_z80_sdcc_Osries/aes128_   aes128
     000009B5  A$aes128_z80_sdcc_Osries/aes128_   aes128
     000009B7  A$aes128_z80_sdcc_Osries/aes128_   aes128
     000009BA  A$aes128_z80_sdcc_Osries/aes128_   aes128
     000009BB  A$aes128_z80_sdcc_Osries/aes128_   aes128
     000009BD  A$aes128_z80_sdcc_Osries/aes128_   aes128
     000009BD  C$aes128.c$145$1_0$60              aes128
     000009C0  A$aes128_z80_sdcc_Osries/aes128_   aes128
     000009C1  A$aes128_z80_sdcc_Osries/aes128_   aes128
     000009C4  A$aes128_z80_sdcc_Osries/aes128_   aes128
     000009C7  A$aes128_z80_sdcc_Osries/aes128_   aes128
     000009CA  A$aes128_z80_sdcc_Osries/aes128_   aes128
     000009CD  A$aes128_z80_sdcc_Osries/aes128_   aes128
     000009D0  A$aes128_z80_sdcc_Osries/aes128_   aes128
     000009D3  A$aes128_z80_sdcc_Osries/aes128_   aes128
     000009D4  A$aes128_z80_sdcc_Osries/aes128_   aes128
     000009D5  A$aes128_z80_sdcc_Osries/aes128_   aes128
     000009D6  A$aes128_z80_sdcc_Osries/aes128_   aes128
     000009D7  A$aes128_z80_sdcc_Osries/aes128_   aes128
     000009DA  A$aes128_z80_sdcc_Osries/aes128_   aes128
     000009DD  A$aes128_z80_sdcc_Osries/aes128_   aes128
     000009DE  A$aes128_z80_sdcc_Osries/aes128_   aes128
     000009DF  A$aes128_z80_sdcc_Osries/aes128_   aes128
     000009E2  A$aes128_z80_sdcc_Osries/aes128_   aes128
     000009E3  A$aes128_z80_sdcc_Osries/aes128_   aes128
     000009E4  A$aes128_z80_sdcc_Osries/aes128_   aes128
     000009E7  A$aes128_z80_sdcc_Osries/aes128_   aes128
     000009E8  A$aes128_z80_sdcc_Osries/aes128_   aes128
     000009EB  A$aes128_z80_sdcc_Osries/aes128_   aes128
     000009EE  A$aes128_z80_sdcc_Osries/aes128_   aes128
     000009EF  A$aes128_z80_sdcc_Osries/aes128_   aes128
     000009F2  A$aes128_z80_sdcc_Osries/aes128_   aes128
     000009F3  A$aes128_z80_sdcc_Osries/aes128_   aes128
     000009F4  A$aes128_z80_sdcc_Osries/aes128_   aes128
     000009F4  C$aes128.c$149$2_0$61              aes128
     000009F7  A$aes128_z80_sdcc_Osries/aes128_   aes128
     000009F8  A$aes128_z80_sdcc_Osries/aes128_   aes128
     000009FA  A$aes128_z80_sdcc_Osries/aes128_   aes128
     000009FB  A$aes128_z80_sdcc_Osries/aes128_   aes128
     000009FC  A$aes128_z80_sdcc_Osries/aes128_   aes128
     000009FD  A$aes128_z80_sdcc_Osries/aes128_   aes128
     000009FE  A$aes128_z80_sdcc_Osries/aes128_   aes128
     00000A00  A$aes128_z80_sdcc_Osries/aes128_   aes128
ASxxxx Linker V03.00 + NoICE + sdld,  page 23.
Hexadecimal  [32-Bits]

Area                                    Addr        Size        Decimal Bytes (Attributes)
--------------------------------        ----        ----        ------- ----- ------------
_CODE                               00000200    000015BA =        5562. bytes (REL,CON)

      Value  Global                              Global Defined In Module
      -----  --------------------------------   ------------------------
     00000A02  A$aes128_z80_sdcc_Osries/aes128_   aes128
     00000A03  A$aes128_z80_sdcc_Osries/aes128_   aes128
     00000A04  A$aes128_z80_sdcc_Osries/aes128_   aes128
     00000A05  A$aes128_z80_sdcc_Osries/aes128_   aes128
     00000A06  A$aes128_z80_sdcc_Osries/aes128_   aes128
     00000A08  A$aes128_z80_sdcc_Osries/aes128_   aes128
     00000A09  A$aes128_z80_sdcc_Osries/aes128_   aes128
     00000A0A  A$aes128_z80_sdcc_Osries/aes128_   aes128
     00000A0B  A$aes128_z80_sdcc_Osries/aes128_   aes128
     00000A0E  A$aes128_z80_sdcc_Osries/aes128_   aes128
     00000A0F  A$aes128_z80_sdcc_Osries/aes128_   aes128
     00000A12  A$aes128_z80_sdcc_Osries/aes128_   aes128
     00000A13  A$aes128_z80_sdcc_Osries/aes128_   aes128
     00000A14  A$aes128_z80_sdcc_Osries/aes128_   aes128
     00000A15  A$aes128_z80_sdcc_Osries/aes128_   aes128
     00000A16  A$aes128_z80_sdcc_Osries/aes128_   aes128
     00000A17  A$aes128_z80_sdcc_Osries/aes128_   aes128
     00000A19  A$aes128_z80_sdcc_Osries/aes128_   aes128
     00000A19  C$aes128.c$150$1_0$60              aes128
     00000A1C  A$aes128_z80_sdcc_Osries/aes128_   aes128
     00000A1D  A$aes128_z80_sdcc_Osries/aes128_   aes128
     00000A20  A$aes128_z80_sdcc_Osries/aes128_   aes128
     00000A20  C$aes128.c$152$1_0$60              aes128
     00000A23  A$aes128_z80_sdcc_Osries/aes128_   aes128
     00000A24  A$aes128_z80_sdcc_Osries/aes128_   aes128
     00000A27  A$aes128_z80_sdcc_Osries/aes128_   aes128
     00000A28  A$aes128_z80_sdcc_Osries/aes128_   aes128
     00000A28  C$aes128.c$153$2_0$62              aes128
     00000A2B  A$aes128_z80_sdcc_Osries/aes128_   aes128
     00000A2C  A$aes128_z80_sdcc_Osries/aes128_   aes128
     00000A2E  A$aes128_z80_sdcc_Osries/aes128_   aes128
     00000A2F  A$aes128_z80_sdcc_Osries/aes128_   aes128
     00000A30  A$aes128_z80_sdcc_Osries/aes128_   aes128
     00000A31  A$aes128_z80_sdcc_Osries/aes128_   aes128
     00000A32  A$aes128_z80_sdcc_Osries/aes128_   aes128
     00000A34  A$aes128_z80_sdcc_Osries/aes128_   aes128
     00000A36  A$aes128_z80_sdcc_Osries/aes128_   aes128
     00000A39  A$aes128_z80_sdcc_Osries/aes128_   aes128
     00000A3C  A$aes128_z80_sdcc_Osries/aes128_   aes128
     00000A3D  A$aes128_z80_sdcc_Osries/aes128_   aes128
     00000A3E  A$aes128_z80_sdcc_Osries/aes128_   aes128
     00000A40  A$aes128_z80_sdcc_Osries/aes128_   aes128
     00000A41  A$aes128_z80_sdcc_Osries/aes128_   aes128
     00000A42  A$aes128_z80_sdcc_Osries/aes128_   aes128
     00000A45  A$aes128_z80_sdcc_Osries/aes128_   aes128
     00000A46  A$aes128_z80_sdcc_Osries/aes128_   aes128
     00000A49  A$aes128_z80_sdcc_Osries/aes128_   aes128
     00000A4A  A$aes128_z80_sdcc_Osries/aes128_   aes128
     00000A4B  A$aes128_z80_sdcc_Osries/aes128_   aes128
     00000A4C  A$aes128_z80_sdcc_Osries/aes128_   aes128
     00000A4D  A$aes128_z80_sdcc_Osries/aes128_   aes128
ASxxxx Linker V03.00 + NoICE + sdld,  page 24.
Hexadecimal  [32-Bits]

Area                                    Addr        Size        Decimal Bytes (Attributes)
--------------------------------        ----        ----        ------- ----- ------------
_CODE                               00000200    000015BA =        5562. bytes (REL,CON)

      Value  Global                              Global Defined In Module
      -----  --------------------------------   ------------------------
     00000A4F  A$aes128_z80_sdcc_Osries/aes128_   aes128
     00000A4F  C$aes128.c$154$1_0$60              aes128
     00000A52  A$aes128_z80_sdcc_Osries/aes128_   aes128
     00000A53  A$aes128_z80_sdcc_Osries/aes128_   aes128
     00000A56  A$aes128_z80_sdcc_Osries/aes128_   aes128
     00000A57  A$aes128_z80_sdcc_Osries/aes128_   aes128
     00000A57  C$aes128.c$156$1_0$60              aes128
     00000A5A  A$aes128_z80_sdcc_Osries/aes128_   aes128
     00000A5C  A$aes128_z80_sdcc_Osries/aes128_   aes128
     00000A5E  A$aes128_z80_sdcc_Osries/aes128_   aes128
     00000A5E  C$aes128.c$157$1_0$60              aes128
     00000A5E  XG$main$0$0                        aes128
     00000A5F  Faes128$__str_1$0_0$0              aes128
     00000A72  Faes128$__str_2$0_0$0              aes128
     00000A7F  Faes128$__str_3$0_0$0              aes128
     00000A85  Faes128$__str_5$0_0$0              aes128
     00000A86  Faes128$__str_6$0_0$0              aes128
     00000A93  _puts                              puts
     00000AC5  _vprintf                           vprintf
     00000AED  _printf                            vprintf
     00000B0A  ___sdcc_enter_ix                   
     00000C3A  __print_format                     printf_large
     000017AA  ___sdcc_call_hl                    
     000017AB  _strlen                            

ASxxxx Linker V03.00 + NoICE + sdld,  page 25.
Hexadecimal  [32-Bits]

Area                                    Addr        Size        Decimal Bytes (Attributes)
--------------------------------        ----        ----        ------- ----- ------------
_HEADER0                            00000000    00000003 =           3. bytes (ABS,CON)

      Value  Global                              Global Defined In Module
      -----  --------------------------------   ------------------------
ASxxxx Linker V03.00 + NoICE + sdld,  page 26.
Hexadecimal  [32-Bits]

Area                                    Addr        Size        Decimal Bytes (Attributes)
--------------------------------        ----        ----        ------- ----- ------------
_HEADER1                            00000000    00000004 =           4. bytes (ABS,CON)

      Value  Global                              Global Defined In Module
      -----  --------------------------------   ------------------------
ASxxxx Linker V03.00 + NoICE + sdld,  page 27.
Hexadecimal  [32-Bits]

Area                                    Addr        Size        Decimal Bytes (Attributes)
--------------------------------        ----        ----        ------- ----- ------------
_HEADER2                            00000000    00000003 =           3. bytes (ABS,CON)

      Value  Global                              Global Defined In Module
      -----  --------------------------------   ------------------------
ASxxxx Linker V03.00 + NoICE + sdld,  page 28.
Hexadecimal  [32-Bits]

Area                                    Addr        Size        Decimal Bytes (Attributes)
--------------------------------        ----        ----        ------- ----- ------------
_HEADER3                            00000000    00000003 =           3. bytes (ABS,CON)

      Value  Global                              Global Defined In Module
      -----  --------------------------------   ------------------------
ASxxxx Linker V03.00 + NoICE + sdld,  page 29.
Hexadecimal  [32-Bits]

Area                                    Addr        Size        Decimal Bytes (Attributes)
--------------------------------        ----        ----        ------- ----- ------------
_HEADER4                            00000000    00000003 =           3. bytes (ABS,CON)

      Value  Global                              Global Defined In Module
      -----  --------------------------------   ------------------------
ASxxxx Linker V03.00 + NoICE + sdld,  page 30.
Hexadecimal  [32-Bits]

Area                                    Addr        Size        Decimal Bytes (Attributes)
--------------------------------        ----        ----        ------- ----- ------------
_HEADER5                            00000000    00000003 =           3. bytes (ABS,CON)

      Value  Global                              Global Defined In Module
      -----  --------------------------------   ------------------------
ASxxxx Linker V03.00 + NoICE + sdld,  page 31.
Hexadecimal  [32-Bits]

Area                                    Addr        Size        Decimal Bytes (Attributes)
--------------------------------        ----        ----        ------- ----- ------------
_HEADER6                            00000000    00000003 =           3. bytes (ABS,CON)

      Value  Global                              Global Defined In Module
      -----  --------------------------------   ------------------------
ASxxxx Linker V03.00 + NoICE + sdld,  page 32.
Hexadecimal  [32-Bits]

Area                                    Addr        Size        Decimal Bytes (Attributes)
--------------------------------        ----        ----        ------- ----- ------------
_HEADER7                            00000000    00000003 =           3. bytes (ABS,CON)

      Value  Global                              Global Defined In Module
      -----  --------------------------------   ------------------------
ASxxxx Linker V03.00 + NoICE + sdld,  page 33.
Hexadecimal  [32-Bits]

Area                                    Addr        Size        Decimal Bytes (Attributes)
--------------------------------        ----        ----        ------- ----- ------------
_HEADER8                            00000000    0000000C =          12. bytes (ABS,CON)

      Value  Global                              Global Defined In Module
      -----  --------------------------------   ------------------------
ASxxxx Linker V03.00 + NoICE + sdld,  page 34.
Hexadecimal  [32-Bits]

Area                                    Addr        Size        Decimal Bytes (Attributes)
--------------------------------        ----        ----        ------- ----- ------------
_GSINIT                             000017BA    0000000F =          15. bytes (REL,CON)

      Value  Global                              Global Defined In Module
      -----  --------------------------------   ------------------------
     000017BA  gsinit                             crt0

ASxxxx Linker V03.00 + NoICE + sdld,  page 35.
Hexadecimal  [32-Bits]

Area                                    Addr        Size        Decimal Bytes (Attributes)
--------------------------------        ----        ----        ------- ----- ------------
_GSFINAL                            000017C9    00000001 =           1. bytes (REL,CON)

      Value  Global                              Global Defined In Module
      -----  --------------------------------   ------------------------
ASxxxx Linker V03.00 + NoICE + sdld,  page 36.

Files Linked                              [ module(s) ]

/usr/bin/../share/sdcc/lib/z80/crt0.rel   [ crt0 ]
/work/dataset_binaries/aes128_z80_sdcc_Os.rel
                                          [ aes128 ]


Libraries Linked                          [ object file ]

/usr/bin/../share/sdcc/lib/z80/z80.lib    [ puts.rel ]
/usr/bin/../share/sdcc/lib/z80/z80.lib    [ vprintf.rel ]
/usr/bin/../share/sdcc/lib/z80/z80.lib    [ crtenter.rel ]
/usr/bin/../share/sdcc/lib/z80/z80.lib    [ printf_large.rel ]
/usr/bin/../share/sdcc/lib/z80/z80.lib    [ __sdcc_call_hl.rel ]
/usr/bin/../share/sdcc/lib/z80/z80.lib    [ strlen.rel ]

ASxxxx Linker V03.00 + NoICE + sdld,  page 37.

User Base Address Definitions

_CODE = 0x0200
_DATA = 0x8000


?ASlink-Warning-Undefined Global '_putchar' referenced by module 'puts'

?ASlink-Warning-Undefined Global '_putchar' referenced by module 'vprintf'
